

Microchip MPLAB XC8 Assembler V2.31 build 20201012212115 
                                                                                               Tue Feb 23 11:29:43 2021

Microchip MPLAB XC8 C Compiler v2.31 (Free license) build 20201012212115 Og1 
     1                           	processor	16F887
     2                           	pagewidth 120
     3                           	opt	flic
     4                           	psect	nvBANK0,global,class=BANK0,space=1,delta=1,noexec
     5                           	psect	cinit,global,class=CODE,merge=1,delta=2
     6                           	psect	bssBANK0,global,class=BANK0,space=1,delta=1,noexec
     7                           	psect	cstackCOMMON,global,class=COMMON,space=1,delta=1,noexec
     8                           	psect	cstackBANK0,global,class=BANK0,space=1,delta=1,noexec
     9                           	psect	maintext,global,class=CODE,split=1,delta=2
    10                           	psect	text1,local,class=CODE,merge=1,delta=2,group=1
    11                           	psect	text2,local,class=CODE,merge=1,delta=2,group=1
    12                           	psect	text3,local,class=CODE,merge=1,delta=2,group=1
    13                           	psect	text4,local,class=CODE,merge=1,delta=2
    14                           	psect	text5,local,class=CODE,merge=1,delta=2
    15                           	psect	text6,local,class=CODE,merge=1,delta=2
    16                           	psect	text7,local,class=CODE,merge=1,delta=2
    17                           	psect	text8,local,class=CODE,merge=1,delta=2
    18                           	psect	intentry,global,class=CODE,delta=2
    19                           	psect	text9,local,class=CODE,merge=1,delta=2,group=1
    20                           	psect	config,global,abs,ovrld,class=CONFIG,space=4,delta=2,noexec
    21                           	dabs	1,0x7E,2
    22  0000                     
    23                           ; Version 2.20
    24                           ; Generated 12/02/2020 GMT
    25                           ; 
    26                           ; Copyright © 2020, Microchip Technology Inc. and its subsidiaries ("Microchip")
    27                           ; All rights reserved.
    28                           ; 
    29                           ; This software is developed by Microchip Technology Inc. and its subsidiaries ("Microch
      +                          ip").
    30                           ; 
    31                           ; Redistribution and use in source and binary forms, with or without modification, are
    32                           ; permitted provided that the following conditions are met:
    33                           ; 
    34                           ;     1. Redistributions of source code must retain the above copyright notice, this lis
      +                          t of
    35                           ;        conditions and the following disclaimer.
    36                           ; 
    37                           ;     2. Redistributions in binary form must reproduce the above copyright notice, this 
      +                          list
    38                           ;        of conditions and the following disclaimer in the documentation and/or other
    39                           ;        materials provided with the distribution.
    40                           ; 
    41                           ;     3. Microchip's name may not be used to endorse or promote products derived from th
      +                          is
    42                           ;        software without specific prior written permission.
    43                           ; 
    44                           ; THIS SOFTWARE IS PROVIDED BY MICROCHIP "AS IS" AND ANY EXPRESS OR IMPLIED WARRANTIES,
    45                           ; INCLUDING, BUT NOT LIMITED TO, THE IMPLIED WARRANTIES OF MERCHANTABILITY AND FITNESS F
      +                          OR
    46                           ; PURPOSE ARE DISCLAIMED.  IN NO EVENT SHALL MICROCHIP BE LIABLE FOR ANY DIRECT, INDIREC
      +                          T,
    47                           ; INCIDENTAL, SPECIAL, EXEMPLARY, OR CONSEQUENTIAL DAMAGES (INCLUDING BUT NOT LIMITED TO
    48                           ; PROCUREMENT OF SUBSTITUTE GOODS OR SERVICES; LOSS OF USE, DATA OR PROFITS; OR BUSINESS
    49                           ; INTERRUPTION) HOWSOEVER CAUSED AND ON ANY THEORY OF LIABILITY, WHETHER IN CONTRACT, ST
      +                          RICT
    50                           ; LIABILITY, OR TORT (INCLUDING NEGLIGENCE OR OTHERWISE) ARISING IN ANY WAY OUT OF THE U
      +                          SE OF
    51                           ; THIS SOFTWARE, EVEN IF ADVISED OF THE POSSIBILITY OF SUCH DAMAGE.
    52                           ; 
    53                           ; 
    54                           ; Code-generator required, PIC16F887 Definitions
    55                           ; 
    56                           ; SFR Addresses
    57  0000                     	;# 
    58  0001                     	;# 
    59  0002                     	;# 
    60  0003                     	;# 
    61  0004                     	;# 
    62  0005                     	;# 
    63  0006                     	;# 
    64  0007                     	;# 
    65  0008                     	;# 
    66  0009                     	;# 
    67  000A                     	;# 
    68  000B                     	;# 
    69  000C                     	;# 
    70  000D                     	;# 
    71  000E                     	;# 
    72  000E                     	;# 
    73  000F                     	;# 
    74  0010                     	;# 
    75  0011                     	;# 
    76  0012                     	;# 
    77  0013                     	;# 
    78  0014                     	;# 
    79  0015                     	;# 
    80  0015                     	;# 
    81  0016                     	;# 
    82  0017                     	;# 
    83  0018                     	;# 
    84  0019                     	;# 
    85  001A                     	;# 
    86  001B                     	;# 
    87  001B                     	;# 
    88  001C                     	;# 
    89  001D                     	;# 
    90  001E                     	;# 
    91  001F                     	;# 
    92  0081                     	;# 
    93  0085                     	;# 
    94  0086                     	;# 
    95  0087                     	;# 
    96  0088                     	;# 
    97  0089                     	;# 
    98  008C                     	;# 
    99  008D                     	;# 
   100  008E                     	;# 
   101  008F                     	;# 
   102  0090                     	;# 
   103  0091                     	;# 
   104  0092                     	;# 
   105  0093                     	;# 
   106  0093                     	;# 
   107  0093                     	;# 
   108  0094                     	;# 
   109  0095                     	;# 
   110  0096                     	;# 
   111  0097                     	;# 
   112  0098                     	;# 
   113  0099                     	;# 
   114  009A                     	;# 
   115  009B                     	;# 
   116  009C                     	;# 
   117  009D                     	;# 
   118  009E                     	;# 
   119  009F                     	;# 
   120  0105                     	;# 
   121  0107                     	;# 
   122  0108                     	;# 
   123  0109                     	;# 
   124  010C                     	;# 
   125  010C                     	;# 
   126  010D                     	;# 
   127  010E                     	;# 
   128  010F                     	;# 
   129  0185                     	;# 
   130  0187                     	;# 
   131  0188                     	;# 
   132  0189                     	;# 
   133  018C                     	;# 
   134  018D                     	;# 
   135  0000                     	;# 
   136  0001                     	;# 
   137  0002                     	;# 
   138  0003                     	;# 
   139  0004                     	;# 
   140  0005                     	;# 
   141  0006                     	;# 
   142  0007                     	;# 
   143  0008                     	;# 
   144  0009                     	;# 
   145  000A                     	;# 
   146  000B                     	;# 
   147  000C                     	;# 
   148  000D                     	;# 
   149  000E                     	;# 
   150  000E                     	;# 
   151  000F                     	;# 
   152  0010                     	;# 
   153  0011                     	;# 
   154  0012                     	;# 
   155  0013                     	;# 
   156  0014                     	;# 
   157  0015                     	;# 
   158  0015                     	;# 
   159  0016                     	;# 
   160  0017                     	;# 
   161  0018                     	;# 
   162  0019                     	;# 
   163  001A                     	;# 
   164  001B                     	;# 
   165  001B                     	;# 
   166  001C                     	;# 
   167  001D                     	;# 
   168  001E                     	;# 
   169  001F                     	;# 
   170  0081                     	;# 
   171  0085                     	;# 
   172  0086                     	;# 
   173  0087                     	;# 
   174  0088                     	;# 
   175  0089                     	;# 
   176  008C                     	;# 
   177  008D                     	;# 
   178  008E                     	;# 
   179  008F                     	;# 
   180  0090                     	;# 
   181  0091                     	;# 
   182  0092                     	;# 
   183  0093                     	;# 
   184  0093                     	;# 
   185  0093                     	;# 
   186  0094                     	;# 
   187  0095                     	;# 
   188  0096                     	;# 
   189  0097                     	;# 
   190  0098                     	;# 
   191  0099                     	;# 
   192  009A                     	;# 
   193  009B                     	;# 
   194  009C                     	;# 
   195  009D                     	;# 
   196  009E                     	;# 
   197  009F                     	;# 
   198  0105                     	;# 
   199  0107                     	;# 
   200  0108                     	;# 
   201  0109                     	;# 
   202  010C                     	;# 
   203  010C                     	;# 
   204  010D                     	;# 
   205  010E                     	;# 
   206  010F                     	;# 
   207  0185                     	;# 
   208  0187                     	;# 
   209  0188                     	;# 
   210  0189                     	;# 
   211  018C                     	;# 
   212  018D                     	;# 
   213  0000                     	;# 
   214  0001                     	;# 
   215  0002                     	;# 
   216  0003                     	;# 
   217  0004                     	;# 
   218  0005                     	;# 
   219  0006                     	;# 
   220  0007                     	;# 
   221  0008                     	;# 
   222  0009                     	;# 
   223  000A                     	;# 
   224  000B                     	;# 
   225  000C                     	;# 
   226  000D                     	;# 
   227  000E                     	;# 
   228  000E                     	;# 
   229  000F                     	;# 
   230  0010                     	;# 
   231  0011                     	;# 
   232  0012                     	;# 
   233  0013                     	;# 
   234  0014                     	;# 
   235  0015                     	;# 
   236  0015                     	;# 
   237  0016                     	;# 
   238  0017                     	;# 
   239  0018                     	;# 
   240  0019                     	;# 
   241  001A                     	;# 
   242  001B                     	;# 
   243  001B                     	;# 
   244  001C                     	;# 
   245  001D                     	;# 
   246  001E                     	;# 
   247  001F                     	;# 
   248  0081                     	;# 
   249  0085                     	;# 
   250  0086                     	;# 
   251  0087                     	;# 
   252  0088                     	;# 
   253  0089                     	;# 
   254  008C                     	;# 
   255  008D                     	;# 
   256  008E                     	;# 
   257  008F                     	;# 
   258  0090                     	;# 
   259  0091                     	;# 
   260  0092                     	;# 
   261  0093                     	;# 
   262  0093                     	;# 
   263  0093                     	;# 
   264  0094                     	;# 
   265  0095                     	;# 
   266  0096                     	;# 
   267  0097                     	;# 
   268  0098                     	;# 
   269  0099                     	;# 
   270  009A                     	;# 
   271  009B                     	;# 
   272  009C                     	;# 
   273  009D                     	;# 
   274  009E                     	;# 
   275  009F                     	;# 
   276  0105                     	;# 
   277  0107                     	;# 
   278  0108                     	;# 
   279  0109                     	;# 
   280  010C                     	;# 
   281  010C                     	;# 
   282  010D                     	;# 
   283  010E                     	;# 
   284  010F                     	;# 
   285  0185                     	;# 
   286  0187                     	;# 
   287  0188                     	;# 
   288  0189                     	;# 
   289  018C                     	;# 
   290  018D                     	;# 
   291  0000                     	;# 
   292  0001                     	;# 
   293  0002                     	;# 
   294  0003                     	;# 
   295  0004                     	;# 
   296  0005                     	;# 
   297  0006                     	;# 
   298  0007                     	;# 
   299  0008                     	;# 
   300  0009                     	;# 
   301  000A                     	;# 
   302  000B                     	;# 
   303  000C                     	;# 
   304  000D                     	;# 
   305  000E                     	;# 
   306  000E                     	;# 
   307  000F                     	;# 
   308  0010                     	;# 
   309  0011                     	;# 
   310  0012                     	;# 
   311  0013                     	;# 
   312  0014                     	;# 
   313  0015                     	;# 
   314  0015                     	;# 
   315  0016                     	;# 
   316  0017                     	;# 
   317  0018                     	;# 
   318  0019                     	;# 
   319  001A                     	;# 
   320  001B                     	;# 
   321  001B                     	;# 
   322  001C                     	;# 
   323  001D                     	;# 
   324  001E                     	;# 
   325  001F                     	;# 
   326  0081                     	;# 
   327  0085                     	;# 
   328  0086                     	;# 
   329  0087                     	;# 
   330  0088                     	;# 
   331  0089                     	;# 
   332  008C                     	;# 
   333  008D                     	;# 
   334  008E                     	;# 
   335  008F                     	;# 
   336  0090                     	;# 
   337  0091                     	;# 
   338  0092                     	;# 
   339  0093                     	;# 
   340  0093                     	;# 
   341  0093                     	;# 
   342  0094                     	;# 
   343  0095                     	;# 
   344  0096                     	;# 
   345  0097                     	;# 
   346  0098                     	;# 
   347  0099                     	;# 
   348  009A                     	;# 
   349  009B                     	;# 
   350  009C                     	;# 
   351  009D                     	;# 
   352  009E                     	;# 
   353  009F                     	;# 
   354  0105                     	;# 
   355  0107                     	;# 
   356  0108                     	;# 
   357  0109                     	;# 
   358  010C                     	;# 
   359  010C                     	;# 
   360  010D                     	;# 
   361  010E                     	;# 
   362  010F                     	;# 
   363  0185                     	;# 
   364  0187                     	;# 
   365  0188                     	;# 
   366  0189                     	;# 
   367  018C                     	;# 
   368  018D                     	;# 
   369  0000                     	;# 
   370  0001                     	;# 
   371  0002                     	;# 
   372  0003                     	;# 
   373  0004                     	;# 
   374  0005                     	;# 
   375  0006                     	;# 
   376  0007                     	;# 
   377  0008                     	;# 
   378  0009                     	;# 
   379  000A                     	;# 
   380  000B                     	;# 
   381  000C                     	;# 
   382  000D                     	;# 
   383  000E                     	;# 
   384  000E                     	;# 
   385  000F                     	;# 
   386  0010                     	;# 
   387  0011                     	;# 
   388  0012                     	;# 
   389  0013                     	;# 
   390  0014                     	;# 
   391  0015                     	;# 
   392  0015                     	;# 
   393  0016                     	;# 
   394  0017                     	;# 
   395  0018                     	;# 
   396  0019                     	;# 
   397  001A                     	;# 
   398  001B                     	;# 
   399  001B                     	;# 
   400  001C                     	;# 
   401  001D                     	;# 
   402  001E                     	;# 
   403  001F                     	;# 
   404  0081                     	;# 
   405  0085                     	;# 
   406  0086                     	;# 
   407  0087                     	;# 
   408  0088                     	;# 
   409  0089                     	;# 
   410  008C                     	;# 
   411  008D                     	;# 
   412  008E                     	;# 
   413  008F                     	;# 
   414  0090                     	;# 
   415  0091                     	;# 
   416  0092                     	;# 
   417  0093                     	;# 
   418  0093                     	;# 
   419  0093                     	;# 
   420  0094                     	;# 
   421  0095                     	;# 
   422  0096                     	;# 
   423  0097                     	;# 
   424  0098                     	;# 
   425  0099                     	;# 
   426  009A                     	;# 
   427  009B                     	;# 
   428  009C                     	;# 
   429  009D                     	;# 
   430  009E                     	;# 
   431  009F                     	;# 
   432  0105                     	;# 
   433  0107                     	;# 
   434  0108                     	;# 
   435  0109                     	;# 
   436  010C                     	;# 
   437  010C                     	;# 
   438  010D                     	;# 
   439  010E                     	;# 
   440  010F                     	;# 
   441  0185                     	;# 
   442  0187                     	;# 
   443  0188                     	;# 
   444  0189                     	;# 
   445  018C                     	;# 
   446  018D                     	;# 
   447  0000                     	;# 
   448  0001                     	;# 
   449  0002                     	;# 
   450  0003                     	;# 
   451  0004                     	;# 
   452  0005                     	;# 
   453  0006                     	;# 
   454  0007                     	;# 
   455  0008                     	;# 
   456  0009                     	;# 
   457  000A                     	;# 
   458  000B                     	;# 
   459  000C                     	;# 
   460  000D                     	;# 
   461  000E                     	;# 
   462  000E                     	;# 
   463  000F                     	;# 
   464  0010                     	;# 
   465  0011                     	;# 
   466  0012                     	;# 
   467  0013                     	;# 
   468  0014                     	;# 
   469  0015                     	;# 
   470  0015                     	;# 
   471  0016                     	;# 
   472  0017                     	;# 
   473  0018                     	;# 
   474  0019                     	;# 
   475  001A                     	;# 
   476  001B                     	;# 
   477  001B                     	;# 
   478  001C                     	;# 
   479  001D                     	;# 
   480  001E                     	;# 
   481  001F                     	;# 
   482  0081                     	;# 
   483  0085                     	;# 
   484  0086                     	;# 
   485  0087                     	;# 
   486  0088                     	;# 
   487  0089                     	;# 
   488  008C                     	;# 
   489  008D                     	;# 
   490  008E                     	;# 
   491  008F                     	;# 
   492  0090                     	;# 
   493  0091                     	;# 
   494  0092                     	;# 
   495  0093                     	;# 
   496  0093                     	;# 
   497  0093                     	;# 
   498  0094                     	;# 
   499  0095                     	;# 
   500  0096                     	;# 
   501  0097                     	;# 
   502  0098                     	;# 
   503  0099                     	;# 
   504  009A                     	;# 
   505  009B                     	;# 
   506  009C                     	;# 
   507  009D                     	;# 
   508  009E                     	;# 
   509  009F                     	;# 
   510  0105                     	;# 
   511  0107                     	;# 
   512  0108                     	;# 
   513  0109                     	;# 
   514  010C                     	;# 
   515  010C                     	;# 
   516  010D                     	;# 
   517  010E                     	;# 
   518  010F                     	;# 
   519  0185                     	;# 
   520  0187                     	;# 
   521  0188                     	;# 
   522  0189                     	;# 
   523  018C                     	;# 
   524  018D                     	;# 
   525                           
   526                           	psect	nvBANK0
   527  0059                     __pnvBANK0:
   528  0059                     _temperature:
   529  0059                     	ds	2
   530  000B                     _INTCONbits	set	11
   531  001F                     _ADCON0	set	31
   532  0013                     _SSPBUF	set	19
   533  001E                     _ADRESH	set	30
   534  001F                     _ADCON0bits	set	31
   535  000C                     _PIR1bits	set	12
   536  0014                     _SSPCON	set	20
   537  0009                     _PORTE	set	9
   538  0008                     _PORTD	set	8
   539  0006                     _PORTB	set	6
   540  0005                     _PORTA	set	5
   541  009E                     _ADRESL	set	158
   542  009F                     _ADCON1	set	159
   543  0094                     _SSPSTATbits	set	148
   544  008C                     _PIE1bits	set	140
   545  0094                     _SSPSTAT	set	148
   546  0087                     _TRISCbits	set	135
   547  0089                     _TRISE	set	137
   548  0088                     _TRISD	set	136
   549  0096                     _IOCB	set	150
   550  0086                     _TRISB	set	134
   551  0085                     _TRISAbits	set	133
   552  0189                     _ANSELH	set	393
   553  0188                     _ANSEL	set	392
   554                           
   555                           	psect	cinit
   556  0011                     start_initialization:	
   557                           ; #config settings
   558                           
   559  0011                     __initialization:
   560                           
   561                           ; Clear objects allocated to BANK0
   562  0011  1283               	bcf	3,5	;RP0=0, select bank0
   563  0012  1303               	bcf	3,6	;RP1=0, select bank0
   564  0013  01D4               	clrf	__pbssBANK0& (0+127)
   565  0014  01D5               	clrf	(__pbssBANK0+1)& (0+127)
   566  0015  01D6               	clrf	(__pbssBANK0+2)& (0+127)
   567  0016  01D7               	clrf	(__pbssBANK0+3)& (0+127)
   568  0017  01D8               	clrf	(__pbssBANK0+4)& (0+127)
   569  0018                     end_of_initialization:	
   570                           ;End of C runtime variable initialization code
   571                           
   572  0018                     __end_of__initialization:
   573  0018  0183               	clrf	3
   574  0019  120A  118A  2CB3   	ljmp	_main	;jump to C main() function
   575                           
   576                           	psect	bssBANK0
   577  0054                     __pbssBANK0:
   578  0054                     _temperature_float:
   579  0054                     	ds	4
   580  0058                     _read_value:
   581  0058                     	ds	1
   582                           
   583                           	psect	cstackCOMMON
   584  0070                     __pcstackCOMMON:
   585  0070                     ?_ADC_Initialize:
   586  0070                     ?_PORTS_MANAGER_Initialize:	
   587                           ; 1 bytes @ 0x0
   588                           
   589  0070                     ?_SPI_MANAGER_Initialize:	
   590                           ; 1 bytes @ 0x0
   591                           
   592  0070                     ?_SYSTEM_Initialize:	
   593                           ; 1 bytes @ 0x0
   594                           
   595  0070                     ?_myISR:	
   596                           ; 1 bytes @ 0x0
   597                           
   598  0070                     ?_main:	
   599                           ; 1 bytes @ 0x0
   600                           
   601  0070                     ?___xxtofl:	
   602                           ; 1 bytes @ 0x0
   603                           
   604  0070                     ___xxtofl@val:	
   605                           ; 4 bytes @ 0x0
   606                           
   607                           
   608                           ; 4 bytes @ 0x0
   609  0070                     	ds	4
   610  0074                     ??___xxtofl:
   611                           
   612                           ; 1 bytes @ 0x4
   613  0074                     	ds	4
   614  0078                     ___xxtofl@sign:
   615                           
   616                           ; 1 bytes @ 0x8
   617  0078                     	ds	1
   618  0079                     ___xxtofl@exp:
   619                           
   620                           ; 1 bytes @ 0x9
   621  0079                     	ds	1
   622  007A                     ___xxtofl@arg:
   623                           
   624                           ; 4 bytes @ 0xA
   625  007A                     	ds	4
   626                           
   627                           	psect	cstackBANK0
   628  0020                     __pcstackBANK0:
   629  0020                     ??_myISR:
   630                           
   631                           ; 1 bytes @ 0x0
   632  0020                     	ds	6
   633  0026                     ??_ADC_Initialize:
   634  0026                     ??_PORTS_MANAGER_Initialize:	
   635                           ; 1 bytes @ 0x6
   636                           
   637  0026                     ??_SPI_MANAGER_Initialize:	
   638                           ; 1 bytes @ 0x6
   639                           
   640  0026                     ??_SYSTEM_Initialize:	
   641                           ; 1 bytes @ 0x6
   642                           
   643  0026                     ?__Umul8_16:	
   644                           ; 1 bytes @ 0x6
   645                           
   646  0026                     __Umul8_16@multiplicand:	
   647                           ; 2 bytes @ 0x6
   648                           
   649                           
   650                           ; 1 bytes @ 0x6
   651  0026                     	ds	2
   652  0028                     ??__Umul8_16:
   653                           
   654                           ; 1 bytes @ 0x8
   655  0028                     	ds	2
   656  002A                     __Umul8_16@product:
   657                           
   658                           ; 2 bytes @ 0xA
   659  002A                     	ds	2
   660  002C                     __Umul8_16@word_mpld:
   661                           
   662                           ; 2 bytes @ 0xC
   663  002C                     	ds	2
   664  002E                     __Umul8_16@multiplier:
   665                           
   666                           ; 1 bytes @ 0xE
   667  002E                     	ds	1
   668  002F                     ?___flmul:
   669  002F                     ___flmul@b:	
   670                           ; 4 bytes @ 0xF
   671                           
   672                           
   673                           ; 4 bytes @ 0xF
   674  002F                     	ds	4
   675  0033                     ___flmul@a:
   676                           
   677                           ; 4 bytes @ 0x13
   678  0033                     	ds	4
   679  0037                     ??___flmul:
   680                           
   681                           ; 1 bytes @ 0x17
   682  0037                     	ds	5
   683  003C                     ___flmul@sign:
   684                           
   685                           ; 1 bytes @ 0x1C
   686  003C                     	ds	1
   687  003D                     ___flmul@grs:
   688                           
   689                           ; 4 bytes @ 0x1D
   690  003D                     	ds	4
   691  0041                     ___flmul@aexp:
   692                           
   693                           ; 1 bytes @ 0x21
   694  0041                     	ds	1
   695  0042                     ___flmul@bexp:
   696                           
   697                           ; 1 bytes @ 0x22
   698  0042                     	ds	1
   699  0043                     ___flmul@prod:
   700                           
   701                           ; 4 bytes @ 0x23
   702  0043                     	ds	4
   703  0047                     ___flmul@temp:
   704                           
   705                           ; 2 bytes @ 0x27
   706  0047                     	ds	2
   707  0049                     ?___fltol:
   708  0049                     ___fltol@f1:	
   709                           ; 4 bytes @ 0x29
   710                           
   711                           
   712                           ; 4 bytes @ 0x29
   713  0049                     	ds	4
   714  004D                     ??___fltol:
   715                           
   716                           ; 1 bytes @ 0x2D
   717  004D                     	ds	5
   718  0052                     ___fltol@sign1:
   719                           
   720                           ; 1 bytes @ 0x32
   721  0052                     	ds	1
   722  0053                     ___fltol@exp1:
   723                           
   724                           ; 1 bytes @ 0x33
   725  0053                     	ds	1
   726  0054                     ??_main:
   727                           
   728                           	psect	maintext
   729  04B3                     __pmaintext:	
   730                           ; 1 bytes @ 0x34
   731 ;;
   732 ;;Main: autosize = 0, tempsize = 0, incstack = 0, save=0
   733 ;;
   734 ;; *************** function _main *****************
   735 ;; Defined at:
   736 ;;		line 54 in file "main.c"
   737 ;; Parameters:    Size  Location     Type
   738 ;;		None
   739 ;; Auto vars:     Size  Location     Type
   740 ;;		None
   741 ;; Return value:  Size  Location     Type
   742 ;;                  1    wreg      void 
   743 ;; Registers used:
   744 ;;		wreg, status,2, status,0, btemp+1, pclath, cstack
   745 ;; Tracked objects:
   746 ;;		On entry : B00/0
   747 ;;		On exit  : 0/0
   748 ;;		Unchanged: 0/0
   749 ;; Data sizes:     COMMON   BANK0   BANK1   BANK3   BANK2
   750 ;;      Params:         0       0       0       0       0
   751 ;;      Locals:         0       0       0       0       0
   752 ;;      Temps:          0       0       0       0       0
   753 ;;      Totals:         0       0       0       0       0
   754 ;;Total ram usage:        0 bytes
   755 ;; Hardware stack levels required when called:    4
   756 ;; This function calls:
   757 ;;		_SYSTEM_Initialize
   758 ;;		___flmul
   759 ;;		___fltol
   760 ;; This function is called by:
   761 ;;		Startup code after reset
   762 ;; This function uses a non-reentrant model
   763 ;;
   764                           
   765                           
   766                           ;psect for function _main
   767  04B3                     _main:
   768  04B3                     l1329:	
   769                           ;incstack = 0
   770                           ; Regs used in _main: [wreg+status,2+status,0+btemp+1+pclath+cstack]
   771                           
   772                           
   773                           ;main.c: 56:     SYSTEM_Initialize();
   774  04B3  120A  118A  25CD  120A  118A  	fcall	_SYSTEM_Initialize
   775  04B8                     l1331:
   776  04B8  1283               	bcf	3,5	;RP0=0, select bank0
   777  04B9  1303               	bcf	3,6	;RP1=0, select bank0
   778  04BA  149F               	bsf	31,1	;volatile
   779  04BB                     l1333:
   780                           
   781                           ;main.c: 60:         temperature = (uint16_t)(temperature_float*2);
   782  04BB  0857               	movf	_temperature_float+3,w
   783  04BC  00B6               	movwf	___flmul@a+3
   784  04BD  0856               	movf	_temperature_float+2,w
   785  04BE  00B5               	movwf	___flmul@a+2
   786  04BF  0855               	movf	_temperature_float+1,w
   787  04C0  00B4               	movwf	___flmul@a+1
   788  04C1  0854               	movf	_temperature_float,w
   789  04C2  00B3               	movwf	___flmul@a
   790  04C3  3040               	movlw	64
   791  04C4  00B2               	movwf	___flmul@b+3
   792  04C5  3000               	movlw	0
   793  04C6  00B1               	movwf	___flmul@b+2
   794  04C7  3000               	movlw	0
   795  04C8  00B0               	movwf	___flmul@b+1
   796  04C9  3000               	movlw	0
   797  04CA  00AF               	movwf	___flmul@b
   798  04CB  120A  118A  201C  120A  118A  	fcall	___flmul
   799  04D0  1283               	bcf	3,5	;RP0=0, select bank0
   800  04D1  1303               	bcf	3,6	;RP1=0, select bank0
   801  04D2  0832               	movf	?___flmul+3,w
   802  04D3  00CC               	movwf	___fltol@f1+3
   803  04D4  0831               	movf	?___flmul+2,w
   804  04D5  00CB               	movwf	___fltol@f1+2
   805  04D6  0830               	movf	?___flmul+1,w
   806  04D7  00CA               	movwf	___fltol@f1+1
   807  04D8  082F               	movf	?___flmul,w
   808  04D9  00C9               	movwf	___fltol@f1
   809  04DA  120A  118A  2437  120A  118A  	fcall	___fltol
   810  04DF  1283               	bcf	3,5	;RP0=0, select bank0
   811  04E0  1303               	bcf	3,6	;RP1=0, select bank0
   812  04E1  084A               	movf	?___fltol+1,w
   813  04E2  00DA               	movwf	_temperature+1
   814  04E3  0849               	movf	?___fltol,w
   815  04E4  00D9               	movwf	_temperature
   816  04E5                     l1335:
   817                           
   818                           ;main.c: 62:         if(temperature > 36){
   819  04E5  3000               	movlw	0
   820  04E6  025A               	subwf	_temperature+1,w
   821  04E7  3025               	movlw	37
   822  04E8  1903               	skipnz
   823  04E9  0259               	subwf	_temperature,w
   824  04EA  1C03               	skipc
   825  04EB  2CED               	goto	u1411
   826  04EC  2CEE               	goto	u1410
   827  04ED                     u1411:
   828  04ED  2CF0               	goto	l91
   829  04EE                     u1410:
   830  04EE                     l1337:
   831                           
   832                           ;main.c: 63:             PORTD = 4;
   833  04EE  3004               	movlw	4
   834  04EF  0088               	movwf	8	;volatile
   835  04F0                     l91:	
   836                           ;main.c: 64:         }
   837                           
   838                           
   839                           ;main.c: 65:         if((temperature <= 36) && (temperature >= 25)){
   840  04F0  3000               	movlw	0
   841  04F1  025A               	subwf	_temperature+1,w
   842  04F2  3025               	movlw	37
   843  04F3  1903               	skipnz
   844  04F4  0259               	subwf	_temperature,w
   845  04F5  1803               	skipnc
   846  04F6  2CF8               	goto	u1421
   847  04F7  2CF9               	goto	u1420
   848  04F8                     u1421:
   849  04F8  2D04               	goto	l92
   850  04F9                     u1420:
   851  04F9                     l1339:
   852  04F9  3000               	movlw	0
   853  04FA  025A               	subwf	_temperature+1,w
   854  04FB  3019               	movlw	25
   855  04FC  1903               	skipnz
   856  04FD  0259               	subwf	_temperature,w
   857  04FE  1C03               	skipc
   858  04FF  2D01               	goto	u1431
   859  0500  2D02               	goto	u1430
   860  0501                     u1431:
   861  0501  2D04               	goto	l92
   862  0502                     u1430:
   863  0502                     l1341:
   864                           
   865                           ;main.c: 66:             PORTD = 2;
   866  0502  3002               	movlw	2
   867  0503  0088               	movwf	8	;volatile
   868  0504                     l92:	
   869                           ;main.c: 67:         }
   870                           
   871                           
   872                           ;main.c: 68:         if(temperature < 25){
   873  0504  3000               	movlw	0
   874  0505  025A               	subwf	_temperature+1,w
   875  0506  3019               	movlw	25
   876  0507  1903               	skipnz
   877  0508  0259               	subwf	_temperature,w
   878  0509  1803               	skipnc
   879  050A  2D0C               	goto	u1441
   880  050B  2D0D               	goto	u1440
   881  050C                     u1441:
   882  050C  2CBB               	goto	l1333
   883  050D                     u1440:
   884  050D                     l1343:
   885                           
   886                           ;main.c: 69:             PORTD = 1;
   887  050D  3001               	movlw	1
   888  050E  0088               	movwf	8	;volatile
   889  050F  2CBB               	goto	l1333
   890  0510  120A  118A  280E   	ljmp	start
   891  0513                     __end_of_main:
   892                           
   893                           	psect	text1
   894  0437                     __ptext1:	
   895 ;; *************** function ___fltol *****************
   896 ;; Defined at:
   897 ;;		line 43 in file "C:\Program Files\Microchip\xc8\v2.31\pic\sources\c90\common\fltol.c"
   898 ;; Parameters:    Size  Location     Type
   899 ;;  f1              4   41[BANK0 ] void 
   900 ;; Auto vars:     Size  Location     Type
   901 ;;  exp1            1   51[BANK0 ] unsigned char 
   902 ;;  sign1           1   50[BANK0 ] unsigned char 
   903 ;; Return value:  Size  Location     Type
   904 ;;                  4   41[BANK0 ] long 
   905 ;; Registers used:
   906 ;;		wreg, status,2, status,0
   907 ;; Tracked objects:
   908 ;;		On entry : 0/0
   909 ;;		On exit  : 0/0
   910 ;;		Unchanged: 0/0
   911 ;; Data sizes:     COMMON   BANK0   BANK1   BANK3   BANK2
   912 ;;      Params:         0       4       0       0       0
   913 ;;      Locals:         0       2       0       0       0
   914 ;;      Temps:          0       5       0       0       0
   915 ;;      Totals:         0      11       0       0       0
   916 ;;Total ram usage:       11 bytes
   917 ;; Hardware stack levels used:    1
   918 ;; Hardware stack levels required when called:    2
   919 ;; This function calls:
   920 ;;		Nothing
   921 ;; This function is called by:
   922 ;;		_main
   923 ;; This function uses a non-reentrant model
   924 ;;
   925                           
   926                           
   927                           ;psect for function ___fltol
   928  0437                     ___fltol:
   929  0437                     l1089:	
   930                           ;incstack = 0
   931                           ; Regs used in ___fltol: [wreg+status,2+status,0]
   932                           
   933  0437  1003               	clrc
   934  0438  1283               	bcf	3,5	;RP0=0, select bank0
   935  0439  1303               	bcf	3,6	;RP1=0, select bank0
   936  043A  0D4B               	rlf	___fltol@f1+2,w
   937  043B  0D4C               	rlf	___fltol@f1+3,w
   938  043C  00CD               	movwf	??___fltol
   939  043D  084D               	movf	??___fltol,w
   940  043E  00D3               	movwf	___fltol@exp1
   941  043F  0853               	movf	___fltol@exp1,w
   942  0440  1D03               	btfss	3,2
   943  0441  2C43               	goto	u761
   944  0442  2C44               	goto	u760
   945  0443                     u761:
   946  0443  2C4D               	goto	l1095
   947  0444                     u760:
   948  0444                     l1091:
   949  0444  3000               	movlw	0
   950  0445  00CC               	movwf	?___fltol+3
   951  0446  3000               	movlw	0
   952  0447  00CB               	movwf	?___fltol+2
   953  0448  3000               	movlw	0
   954  0449  00CA               	movwf	?___fltol+1
   955  044A  3000               	movlw	0
   956  044B  00C9               	movwf	?___fltol
   957  044C  2CB2               	goto	l385
   958  044D                     l1095:
   959  044D  0849               	movf	___fltol@f1,w
   960  044E  00CD               	movwf	??___fltol
   961  044F  084A               	movf	___fltol@f1+1,w
   962  0450  00CE               	movwf	??___fltol+1
   963  0451  084B               	movf	___fltol@f1+2,w
   964  0452  00CF               	movwf	??___fltol+2
   965  0453  084C               	movf	___fltol@f1+3,w
   966  0454  00D0               	movwf	??___fltol+3
   967  0455  301F               	movlw	31
   968  0456                     u775:
   969  0456  1003               	clrc
   970  0457  0CD0               	rrf	??___fltol+3,f
   971  0458  0CCF               	rrf	??___fltol+2,f
   972  0459  0CCE               	rrf	??___fltol+1,f
   973  045A  0CCD               	rrf	??___fltol,f
   974  045B                     u770:
   975  045B  3EFF               	addlw	-1
   976  045C  1D03               	skipz
   977  045D  2C56               	goto	u775
   978  045E  084D               	movf	??___fltol,w
   979  045F  00D1               	movwf	??___fltol+4
   980  0460  0851               	movf	??___fltol+4,w
   981  0461  00D2               	movwf	___fltol@sign1
   982  0462                     l1097:
   983  0462  17CB               	bsf	___fltol@f1+2,7
   984  0463                     l1099:
   985  0463  30FF               	movlw	255
   986  0464  05C9               	andwf	___fltol@f1,f
   987  0465  30FF               	movlw	255
   988  0466  05CA               	andwf	___fltol@f1+1,f
   989  0467  30FF               	movlw	255
   990  0468  05CB               	andwf	___fltol@f1+2,f
   991  0469  3000               	movlw	0
   992  046A  05CC               	andwf	___fltol@f1+3,f
   993  046B                     l1101:
   994  046B  3096               	movlw	150
   995  046C  02D3               	subwf	___fltol@exp1,f
   996  046D                     l1103:
   997  046D  1FD3               	btfss	___fltol@exp1,7
   998  046E  2C70               	goto	u781
   999  046F  2C71               	goto	u780
  1000  0470                     u781:
  1001  0470  2C8B               	goto	l1113
  1002  0471                     u780:
  1003  0471                     l1105:
  1004  0471  0853               	movf	___fltol@exp1,w
  1005  0472  3A80               	xorlw	128
  1006  0473  3E97               	addlw	151
  1007  0474  1803               	skipnc
  1008  0475  2C77               	goto	u791
  1009  0476  2C78               	goto	u790
  1010  0477                     u791:
  1011  0477  2C79               	goto	l1111
  1012  0478                     u790:
  1013  0478  2C44               	goto	l1091
  1014  0479                     l1111:
  1015  0479  3001               	movlw	1
  1016  047A                     u805:
  1017  047A  1003               	clrc
  1018  047B  0CCC               	rrf	___fltol@f1+3,f
  1019  047C  0CCB               	rrf	___fltol@f1+2,f
  1020  047D  0CCA               	rrf	___fltol@f1+1,f
  1021  047E  0CC9               	rrf	___fltol@f1,f
  1022  047F  3EFF               	addlw	-1
  1023  0480  1D03               	skipz
  1024  0481  2C7A               	goto	u805
  1025  0482  3001               	movlw	1
  1026  0483  00CD               	movwf	??___fltol
  1027  0484  084D               	movf	??___fltol,w
  1028  0485  07D3               	addwf	___fltol@exp1,f
  1029  0486  1D03               	btfss	3,2
  1030  0487  2C89               	goto	u811
  1031  0488  2C8A               	goto	u810
  1032  0489                     u811:
  1033  0489  2C79               	goto	l1111
  1034  048A                     u810:
  1035  048A  2CA2               	goto	l1121
  1036  048B                     l1113:
  1037  048B  3020               	movlw	32
  1038  048C  0253               	subwf	___fltol@exp1,w
  1039  048D  1C03               	skipc
  1040  048E  2C90               	goto	u821
  1041  048F  2C91               	goto	u820
  1042  0490                     u821:
  1043  0490  2C9D               	goto	l392
  1044  0491                     u820:
  1045  0491  2C44               	goto	l1091
  1046  0492                     l1119:
  1047  0492  3001               	movlw	1
  1048  0493  00CD               	movwf	??___fltol
  1049  0494                     u835:
  1050  0494  1003               	clrc
  1051  0495  0DC9               	rlf	___fltol@f1,f
  1052  0496  0DCA               	rlf	___fltol@f1+1,f
  1053  0497  0DCB               	rlf	___fltol@f1+2,f
  1054  0498  0DCC               	rlf	___fltol@f1+3,f
  1055  0499  0BCD               	decfsz	??___fltol,f
  1056  049A  2C94               	goto	u835
  1057  049B  3001               	movlw	1
  1058  049C  02D3               	subwf	___fltol@exp1,f
  1059  049D                     l392:
  1060  049D  0853               	movf	___fltol@exp1,w
  1061  049E  1D03               	btfss	3,2
  1062  049F  2CA1               	goto	u841
  1063  04A0  2CA2               	goto	u840
  1064  04A1                     u841:
  1065  04A1  2C92               	goto	l1119
  1066  04A2                     u840:
  1067  04A2                     l1121:
  1068  04A2  0852               	movf	___fltol@sign1,w
  1069  04A3  1903               	btfsc	3,2
  1070  04A4  2CA6               	goto	u851
  1071  04A5  2CA7               	goto	u850
  1072  04A6                     u851:
  1073  04A6  2CB2               	goto	l395
  1074  04A7                     u850:
  1075  04A7                     l1123:
  1076  04A7  09C9               	comf	___fltol@f1,f
  1077  04A8  09CA               	comf	___fltol@f1+1,f
  1078  04A9  09CB               	comf	___fltol@f1+2,f
  1079  04AA  09CC               	comf	___fltol@f1+3,f
  1080  04AB  0AC9               	incf	___fltol@f1,f
  1081  04AC  1903               	skipnz
  1082  04AD  0ACA               	incf	___fltol@f1+1,f
  1083  04AE  1903               	skipnz
  1084  04AF  0ACB               	incf	___fltol@f1+2,f
  1085  04B0  1903               	skipnz
  1086  04B1  0ACC               	incf	___fltol@f1+3,f
  1087  04B2                     l395:
  1088  04B2                     l385:
  1089  04B2  0008               	return
  1090  04B3                     __end_of___fltol:
  1091                           
  1092                           	psect	text2
  1093  001C                     __ptext2:	
  1094 ;; *************** function ___flmul *****************
  1095 ;; Defined at:
  1096 ;;		line 8 in file "C:\Program Files\Microchip\xc8\v2.31\pic\sources\c90\common\sprcmul.c"
  1097 ;; Parameters:    Size  Location     Type
  1098 ;;  b               4   15[BANK0 ] long 
  1099 ;;  a               4   19[BANK0 ] long 
  1100 ;; Auto vars:     Size  Location     Type
  1101 ;;  prod            4   35[BANK0 ] struct .
  1102 ;;  grs             4   29[BANK0 ] unsigned long 
  1103 ;;  temp            2   39[BANK0 ] struct .
  1104 ;;  bexp            1   34[BANK0 ] unsigned char 
  1105 ;;  aexp            1   33[BANK0 ] unsigned char 
  1106 ;;  sign            1   28[BANK0 ] unsigned char 
  1107 ;; Return value:  Size  Location     Type
  1108 ;;                  4   15[BANK0 ] unsigned char 
  1109 ;; Registers used:
  1110 ;;		wreg, status,2, status,0, btemp+1, pclath, cstack
  1111 ;; Tracked objects:
  1112 ;;		On entry : 0/0
  1113 ;;		On exit  : 0/0
  1114 ;;		Unchanged: 0/0
  1115 ;; Data sizes:     COMMON   BANK0   BANK1   BANK3   BANK2
  1116 ;;      Params:         0       8       0       0       0
  1117 ;;      Locals:         0      13       0       0       0
  1118 ;;      Temps:          0       5       0       0       0
  1119 ;;      Totals:         0      26       0       0       0
  1120 ;;Total ram usage:       26 bytes
  1121 ;; Hardware stack levels used:    1
  1122 ;; Hardware stack levels required when called:    3
  1123 ;; This function calls:
  1124 ;;		__Umul8_16
  1125 ;; This function is called by:
  1126 ;;		_main
  1127 ;; This function uses a non-reentrant model
  1128 ;;
  1129                           
  1130                           
  1131                           ;psect for function ___flmul
  1132  001C                     ___flmul:
  1133  001C                     l1125:	
  1134                           ;incstack = 0
  1135                           ; Regs used in ___flmul: [wreg+status,2+status,0+btemp+1+pclath+cstack]
  1136                           
  1137  001C  1283               	bcf	3,5	;RP0=0, select bank0
  1138  001D  1303               	bcf	3,6	;RP1=0, select bank0
  1139  001E  0832               	movf	___flmul@b+3,w
  1140  001F  3980               	andlw	128
  1141  0020  00B7               	movwf	??___flmul
  1142  0021  0837               	movf	??___flmul,w
  1143  0022  00BC               	movwf	___flmul@sign
  1144  0023                     l1127:
  1145  0023  0832               	movf	___flmul@b+3,w
  1146  0024  00B7               	movwf	??___flmul
  1147  0025  0737               	addwf	??___flmul,w
  1148  0026  00B8               	movwf	??___flmul+1
  1149  0027  0838               	movf	??___flmul+1,w
  1150  0028  00C2               	movwf	___flmul@bexp
  1151  0029                     l1129:
  1152  0029  1FB1               	btfss	___flmul@b+2,7
  1153  002A  282C               	goto	u861
  1154  002B  282D               	goto	u860
  1155  002C                     u861:
  1156  002C  282E               	goto	l1133
  1157  002D                     u860:
  1158  002D                     l1131:
  1159  002D  1442               	bsf	___flmul@bexp,0
  1160  002E                     l1133:
  1161  002E  0842               	movf	___flmul@bexp,w
  1162  002F  1903               	btfsc	3,2
  1163  0030  2832               	goto	u871
  1164  0031  2833               	goto	u870
  1165  0032                     u871:
  1166  0032  2842               	goto	l1141
  1167  0033                     u870:
  1168  0033                     l1135:
  1169  0033  0A42               	incf	___flmul@bexp,w
  1170  0034  1D03               	btfss	3,2
  1171  0035  2837               	goto	u881
  1172  0036  2838               	goto	u880
  1173  0037                     u881:
  1174  0037  2840               	goto	l1139
  1175  0038                     u880:
  1176  0038                     l1137:
  1177  0038  3000               	movlw	0
  1178  0039  00B2               	movwf	___flmul@b+3
  1179  003A  3000               	movlw	0
  1180  003B  00B1               	movwf	___flmul@b+2
  1181  003C  3000               	movlw	0
  1182  003D  00B0               	movwf	___flmul@b+1
  1183  003E  3000               	movlw	0
  1184  003F  00AF               	movwf	___flmul@b
  1185  0040                     l1139:
  1186  0040  17B1               	bsf	___flmul@b+2,7
  1187  0041  284A               	goto	l1143
  1188  0042                     l1141:
  1189  0042  3000               	movlw	0
  1190  0043  00B2               	movwf	___flmul@b+3
  1191  0044  3000               	movlw	0
  1192  0045  00B1               	movwf	___flmul@b+2
  1193  0046  3000               	movlw	0
  1194  0047  00B0               	movwf	___flmul@b+1
  1195  0048  3000               	movlw	0
  1196  0049  00AF               	movwf	___flmul@b
  1197  004A                     l1143:
  1198  004A  0836               	movf	___flmul@a+3,w
  1199  004B  3980               	andlw	128
  1200  004C  00B7               	movwf	??___flmul
  1201  004D  0837               	movf	??___flmul,w
  1202  004E  06BC               	xorwf	___flmul@sign,f
  1203  004F                     l1145:
  1204  004F  0836               	movf	___flmul@a+3,w
  1205  0050  00B7               	movwf	??___flmul
  1206  0051  0737               	addwf	??___flmul,w
  1207  0052  00B8               	movwf	??___flmul+1
  1208  0053  0838               	movf	??___flmul+1,w
  1209  0054  00C1               	movwf	___flmul@aexp
  1210  0055                     l1147:
  1211  0055  1FB5               	btfss	___flmul@a+2,7
  1212  0056  2858               	goto	u891
  1213  0057  2859               	goto	u890
  1214  0058                     u891:
  1215  0058  285A               	goto	l1151
  1216  0059                     u890:
  1217  0059                     l1149:
  1218  0059  1441               	bsf	___flmul@aexp,0
  1219  005A                     l1151:
  1220  005A  0841               	movf	___flmul@aexp,w
  1221  005B  1903               	btfsc	3,2
  1222  005C  285E               	goto	u901
  1223  005D  285F               	goto	u900
  1224  005E                     u901:
  1225  005E  286E               	goto	l1159
  1226  005F                     u900:
  1227  005F                     l1153:
  1228  005F  0A41               	incf	___flmul@aexp,w
  1229  0060  1D03               	btfss	3,2
  1230  0061  2863               	goto	u911
  1231  0062  2864               	goto	u910
  1232  0063                     u911:
  1233  0063  286C               	goto	l1157
  1234  0064                     u910:
  1235  0064                     l1155:
  1236  0064  3000               	movlw	0
  1237  0065  00B6               	movwf	___flmul@a+3
  1238  0066  3000               	movlw	0
  1239  0067  00B5               	movwf	___flmul@a+2
  1240  0068  3000               	movlw	0
  1241  0069  00B4               	movwf	___flmul@a+1
  1242  006A  3000               	movlw	0
  1243  006B  00B3               	movwf	___flmul@a
  1244  006C                     l1157:
  1245  006C  17B5               	bsf	___flmul@a+2,7
  1246  006D  2876               	goto	l1161
  1247  006E                     l1159:
  1248  006E  3000               	movlw	0
  1249  006F  00B6               	movwf	___flmul@a+3
  1250  0070  3000               	movlw	0
  1251  0071  00B5               	movwf	___flmul@a+2
  1252  0072  3000               	movlw	0
  1253  0073  00B4               	movwf	___flmul@a+1
  1254  0074  3000               	movlw	0
  1255  0075  00B3               	movwf	___flmul@a
  1256  0076                     l1161:
  1257  0076  0841               	movf	___flmul@aexp,w
  1258  0077  1903               	btfsc	3,2
  1259  0078  287A               	goto	u921
  1260  0079  287B               	goto	u920
  1261  007A                     u921:
  1262  007A  2880               	goto	l1165
  1263  007B                     u920:
  1264  007B                     l1163:
  1265  007B  0842               	movf	___flmul@bexp,w
  1266  007C  1D03               	btfss	3,2
  1267  007D  287F               	goto	u931
  1268  007E  2880               	goto	u930
  1269  007F                     u931:
  1270  007F  2889               	goto	l1169
  1271  0080                     u930:
  1272  0080                     l1165:
  1273  0080  3000               	movlw	0
  1274  0081  00B2               	movwf	?___flmul+3
  1275  0082  3000               	movlw	0
  1276  0083  00B1               	movwf	?___flmul+2
  1277  0084  3000               	movlw	0
  1278  0085  00B0               	movwf	?___flmul+1
  1279  0086  3000               	movlw	0
  1280  0087  00AF               	movwf	?___flmul
  1281  0088  2B7C               	goto	l588
  1282  0089                     l1169:
  1283  0089  082F               	movf	___flmul@b,w
  1284  008A  00B7               	movwf	??___flmul
  1285  008B  0837               	movf	??___flmul,w
  1286  008C  00A6               	movwf	__Umul8_16@multiplicand
  1287  008D  0835               	movf	___flmul@a+2,w
  1288  008E  120A  118A  255E  120A  118A  	fcall	__Umul8_16
  1289  0093  1283               	bcf	3,5	;RP0=0, select bank0
  1290  0094  1303               	bcf	3,6	;RP1=0, select bank0
  1291  0095  0827               	movf	?__Umul8_16+1,w
  1292  0096  00C8               	movwf	___flmul@temp+1
  1293  0097  0826               	movf	?__Umul8_16,w
  1294  0098  00C7               	movwf	___flmul@temp
  1295  0099                     l1171:
  1296  0099  0847               	movf	___flmul@temp,w
  1297  009A  00B7               	movwf	??___flmul
  1298  009B  01B8               	clrf	??___flmul+1
  1299  009C  01B9               	clrf	??___flmul+2
  1300  009D  01BA               	clrf	??___flmul+3
  1301  009E  083A               	movf	??___flmul+3,w
  1302  009F  00C0               	movwf	___flmul@grs+3
  1303  00A0  0839               	movf	??___flmul+2,w
  1304  00A1  00BF               	movwf	___flmul@grs+2
  1305  00A2  0838               	movf	??___flmul+1,w
  1306  00A3  00BE               	movwf	___flmul@grs+1
  1307  00A4  0837               	movf	??___flmul,w
  1308  00A5  00BD               	movwf	___flmul@grs
  1309  00A6                     l1173:
  1310  00A6  0848               	movf	___flmul@temp+1,w
  1311  00A7  00B7               	movwf	??___flmul
  1312  00A8  01B8               	clrf	??___flmul+1
  1313  00A9  01B9               	clrf	??___flmul+2
  1314  00AA  01BA               	clrf	??___flmul+3
  1315  00AB  083A               	movf	??___flmul+3,w
  1316  00AC  00C6               	movwf	___flmul@prod+3
  1317  00AD  0839               	movf	??___flmul+2,w
  1318  00AE  00C5               	movwf	___flmul@prod+2
  1319  00AF  0838               	movf	??___flmul+1,w
  1320  00B0  00C4               	movwf	___flmul@prod+1
  1321  00B1  0837               	movf	??___flmul,w
  1322  00B2  00C3               	movwf	___flmul@prod
  1323  00B3  0830               	movf	___flmul@b+1,w
  1324  00B4  00B7               	movwf	??___flmul
  1325  00B5  0837               	movf	??___flmul,w
  1326  00B6  00A6               	movwf	__Umul8_16@multiplicand
  1327  00B7  0834               	movf	___flmul@a+1,w
  1328  00B8  120A  118A  255E  120A  118A  	fcall	__Umul8_16
  1329  00BD  1283               	bcf	3,5	;RP0=0, select bank0
  1330  00BE  1303               	bcf	3,6	;RP1=0, select bank0
  1331  00BF  0827               	movf	?__Umul8_16+1,w
  1332  00C0  00C8               	movwf	___flmul@temp+1
  1333  00C1  0826               	movf	?__Umul8_16,w
  1334  00C2  00C7               	movwf	___flmul@temp
  1335  00C3                     l1175:
  1336  00C3  0847               	movf	___flmul@temp,w
  1337  00C4  00B7               	movwf	??___flmul
  1338  00C5  01B8               	clrf	??___flmul+1
  1339  00C6  01B9               	clrf	??___flmul+2
  1340  00C7  01BA               	clrf	??___flmul+3
  1341  00C8  0837               	movf	??___flmul,w
  1342  00C9  07BD               	addwf	___flmul@grs,f
  1343  00CA  0838               	movf	??___flmul+1,w
  1344  00CB  1103               	clrz
  1345  00CC  1803               	skipnc
  1346  00CD  3E01               	addlw	1
  1347  00CE  1903               	skipnz
  1348  00CF  28D1               	goto	u941
  1349  00D0  07BE               	addwf	___flmul@grs+1,f
  1350  00D1                     u941:
  1351  00D1  0839               	movf	??___flmul+2,w
  1352  00D2  1103               	clrz
  1353  00D3  1803               	skipnc
  1354  00D4  3E01               	addlw	1
  1355  00D5  1903               	skipnz
  1356  00D6  28D8               	goto	u942
  1357  00D7  07BF               	addwf	___flmul@grs+2,f
  1358  00D8                     u942:
  1359  00D8  083A               	movf	??___flmul+3,w
  1360  00D9  1103               	clrz
  1361  00DA  1803               	skipnc
  1362  00DB  3E01               	addlw	1
  1363  00DC  1903               	skipnz
  1364  00DD  28DF               	goto	u943
  1365  00DE  07C0               	addwf	___flmul@grs+3,f
  1366  00DF                     u943:
  1367  00DF                     l1177:
  1368  00DF  0848               	movf	___flmul@temp+1,w
  1369  00E0  00B7               	movwf	??___flmul
  1370  00E1  01B8               	clrf	??___flmul+1
  1371  00E2  01B9               	clrf	??___flmul+2
  1372  00E3  01BA               	clrf	??___flmul+3
  1373  00E4  0837               	movf	??___flmul,w
  1374  00E5  07C3               	addwf	___flmul@prod,f
  1375  00E6  0838               	movf	??___flmul+1,w
  1376  00E7  1103               	clrz
  1377  00E8  1803               	skipnc
  1378  00E9  3E01               	addlw	1
  1379  00EA  1903               	skipnz
  1380  00EB  28ED               	goto	u951
  1381  00EC  07C4               	addwf	___flmul@prod+1,f
  1382  00ED                     u951:
  1383  00ED  0839               	movf	??___flmul+2,w
  1384  00EE  1103               	clrz
  1385  00EF  1803               	skipnc
  1386  00F0  3E01               	addlw	1
  1387  00F1  1903               	skipnz
  1388  00F2  28F4               	goto	u952
  1389  00F3  07C5               	addwf	___flmul@prod+2,f
  1390  00F4                     u952:
  1391  00F4  083A               	movf	??___flmul+3,w
  1392  00F5  1103               	clrz
  1393  00F6  1803               	skipnc
  1394  00F7  3E01               	addlw	1
  1395  00F8  1903               	skipnz
  1396  00F9  28FB               	goto	u953
  1397  00FA  07C6               	addwf	___flmul@prod+3,f
  1398  00FB                     u953:
  1399  00FB  0831               	movf	___flmul@b+2,w
  1400  00FC  00B7               	movwf	??___flmul
  1401  00FD  0837               	movf	??___flmul,w
  1402  00FE  00A6               	movwf	__Umul8_16@multiplicand
  1403  00FF  0833               	movf	___flmul@a,w
  1404  0100  120A  118A  255E  120A  118A  	fcall	__Umul8_16
  1405  0105  1283               	bcf	3,5	;RP0=0, select bank0
  1406  0106  1303               	bcf	3,6	;RP1=0, select bank0
  1407  0107  0827               	movf	?__Umul8_16+1,w
  1408  0108  00C8               	movwf	___flmul@temp+1
  1409  0109  0826               	movf	?__Umul8_16,w
  1410  010A  00C7               	movwf	___flmul@temp
  1411  010B                     l1179:
  1412  010B  0847               	movf	___flmul@temp,w
  1413  010C  00B7               	movwf	??___flmul
  1414  010D  01B8               	clrf	??___flmul+1
  1415  010E  01B9               	clrf	??___flmul+2
  1416  010F  01BA               	clrf	??___flmul+3
  1417  0110  0837               	movf	??___flmul,w
  1418  0111  07BD               	addwf	___flmul@grs,f
  1419  0112  0838               	movf	??___flmul+1,w
  1420  0113  1103               	clrz
  1421  0114  1803               	skipnc
  1422  0115  3E01               	addlw	1
  1423  0116  1903               	skipnz
  1424  0117  2919               	goto	u961
  1425  0118  07BE               	addwf	___flmul@grs+1,f
  1426  0119                     u961:
  1427  0119  0839               	movf	??___flmul+2,w
  1428  011A  1103               	clrz
  1429  011B  1803               	skipnc
  1430  011C  3E01               	addlw	1
  1431  011D  1903               	skipnz
  1432  011E  2920               	goto	u962
  1433  011F  07BF               	addwf	___flmul@grs+2,f
  1434  0120                     u962:
  1435  0120  083A               	movf	??___flmul+3,w
  1436  0121  1103               	clrz
  1437  0122  1803               	skipnc
  1438  0123  3E01               	addlw	1
  1439  0124  1903               	skipnz
  1440  0125  2927               	goto	u963
  1441  0126  07C0               	addwf	___flmul@grs+3,f
  1442  0127                     u963:
  1443  0127                     l1181:
  1444  0127  0848               	movf	___flmul@temp+1,w
  1445  0128  00B7               	movwf	??___flmul
  1446  0129  01B8               	clrf	??___flmul+1
  1447  012A  01B9               	clrf	??___flmul+2
  1448  012B  01BA               	clrf	??___flmul+3
  1449  012C  0837               	movf	??___flmul,w
  1450  012D  07C3               	addwf	___flmul@prod,f
  1451  012E  0838               	movf	??___flmul+1,w
  1452  012F  1103               	clrz
  1453  0130  1803               	skipnc
  1454  0131  3E01               	addlw	1
  1455  0132  1903               	skipnz
  1456  0133  2935               	goto	u971
  1457  0134  07C4               	addwf	___flmul@prod+1,f
  1458  0135                     u971:
  1459  0135  0839               	movf	??___flmul+2,w
  1460  0136  1103               	clrz
  1461  0137  1803               	skipnc
  1462  0138  3E01               	addlw	1
  1463  0139  1903               	skipnz
  1464  013A  293C               	goto	u972
  1465  013B  07C5               	addwf	___flmul@prod+2,f
  1466  013C                     u972:
  1467  013C  083A               	movf	??___flmul+3,w
  1468  013D  1103               	clrz
  1469  013E  1803               	skipnc
  1470  013F  3E01               	addlw	1
  1471  0140  1903               	skipnz
  1472  0141  2943               	goto	u973
  1473  0142  07C6               	addwf	___flmul@prod+3,f
  1474  0143                     u973:
  1475  0143                     l1183:
  1476  0143  3008               	movlw	8
  1477  0144  00B7               	movwf	??___flmul
  1478  0145                     u985:
  1479  0145  1003               	clrc
  1480  0146  0DBD               	rlf	___flmul@grs,f
  1481  0147  0DBE               	rlf	___flmul@grs+1,f
  1482  0148  0DBF               	rlf	___flmul@grs+2,f
  1483  0149  0DC0               	rlf	___flmul@grs+3,f
  1484  014A  0BB7               	decfsz	??___flmul,f
  1485  014B  2945               	goto	u985
  1486  014C                     l1185:
  1487  014C  0830               	movf	___flmul@b+1,w
  1488  014D  00B7               	movwf	??___flmul
  1489  014E  0837               	movf	??___flmul,w
  1490  014F  00A6               	movwf	__Umul8_16@multiplicand
  1491  0150  0833               	movf	___flmul@a,w
  1492  0151  120A  118A  255E  120A  118A  	fcall	__Umul8_16
  1493  0156  1283               	bcf	3,5	;RP0=0, select bank0
  1494  0157  1303               	bcf	3,6	;RP1=0, select bank0
  1495  0158  0827               	movf	?__Umul8_16+1,w
  1496  0159  00C8               	movwf	___flmul@temp+1
  1497  015A  0826               	movf	?__Umul8_16,w
  1498  015B  00C7               	movwf	___flmul@temp
  1499  015C                     l1187:
  1500  015C  0847               	movf	___flmul@temp,w
  1501  015D  00B7               	movwf	??___flmul
  1502  015E  0848               	movf	___flmul@temp+1,w
  1503  015F  00B8               	movwf	??___flmul+1
  1504  0160  01B9               	clrf	??___flmul+2
  1505  0161  01BA               	clrf	??___flmul+3
  1506  0162  0837               	movf	??___flmul,w
  1507  0163  07BD               	addwf	___flmul@grs,f
  1508  0164  0838               	movf	??___flmul+1,w
  1509  0165  1103               	clrz
  1510  0166  1803               	skipnc
  1511  0167  3E01               	addlw	1
  1512  0168  1903               	skipnz
  1513  0169  296B               	goto	u991
  1514  016A  07BE               	addwf	___flmul@grs+1,f
  1515  016B                     u991:
  1516  016B  0839               	movf	??___flmul+2,w
  1517  016C  1103               	clrz
  1518  016D  1803               	skipnc
  1519  016E  3E01               	addlw	1
  1520  016F  1903               	skipnz
  1521  0170  2972               	goto	u992
  1522  0171  07BF               	addwf	___flmul@grs+2,f
  1523  0172                     u992:
  1524  0172  083A               	movf	??___flmul+3,w
  1525  0173  1103               	clrz
  1526  0174  1803               	skipnc
  1527  0175  3E01               	addlw	1
  1528  0176  1903               	skipnz
  1529  0177  2979               	goto	u993
  1530  0178  07C0               	addwf	___flmul@grs+3,f
  1531  0179                     u993:
  1532  0179                     l1189:
  1533  0179  082F               	movf	___flmul@b,w
  1534  017A  00B7               	movwf	??___flmul
  1535  017B  0837               	movf	??___flmul,w
  1536  017C  00A6               	movwf	__Umul8_16@multiplicand
  1537  017D  0834               	movf	___flmul@a+1,w
  1538  017E  120A  118A  255E  120A  118A  	fcall	__Umul8_16
  1539  0183  1283               	bcf	3,5	;RP0=0, select bank0
  1540  0184  1303               	bcf	3,6	;RP1=0, select bank0
  1541  0185  0827               	movf	?__Umul8_16+1,w
  1542  0186  00C8               	movwf	___flmul@temp+1
  1543  0187  0826               	movf	?__Umul8_16,w
  1544  0188  00C7               	movwf	___flmul@temp
  1545  0189                     l1191:
  1546  0189  0847               	movf	___flmul@temp,w
  1547  018A  00B7               	movwf	??___flmul
  1548  018B  0848               	movf	___flmul@temp+1,w
  1549  018C  00B8               	movwf	??___flmul+1
  1550  018D  01B9               	clrf	??___flmul+2
  1551  018E  01BA               	clrf	??___flmul+3
  1552  018F  0837               	movf	??___flmul,w
  1553  0190  07BD               	addwf	___flmul@grs,f
  1554  0191  0838               	movf	??___flmul+1,w
  1555  0192  1103               	clrz
  1556  0193  1803               	skipnc
  1557  0194  3E01               	addlw	1
  1558  0195  1903               	skipnz
  1559  0196  2998               	goto	u1001
  1560  0197  07BE               	addwf	___flmul@grs+1,f
  1561  0198                     u1001:
  1562  0198  0839               	movf	??___flmul+2,w
  1563  0199  1103               	clrz
  1564  019A  1803               	skipnc
  1565  019B  3E01               	addlw	1
  1566  019C  1903               	skipnz
  1567  019D  299F               	goto	u1002
  1568  019E  07BF               	addwf	___flmul@grs+2,f
  1569  019F                     u1002:
  1570  019F  083A               	movf	??___flmul+3,w
  1571  01A0  1103               	clrz
  1572  01A1  1803               	skipnc
  1573  01A2  3E01               	addlw	1
  1574  01A3  1903               	skipnz
  1575  01A4  29A6               	goto	u1003
  1576  01A5  07C0               	addwf	___flmul@grs+3,f
  1577  01A6                     u1003:
  1578  01A6                     l1193:
  1579  01A6  3008               	movlw	8
  1580  01A7  00B7               	movwf	??___flmul
  1581  01A8                     u1015:
  1582  01A8  1003               	clrc
  1583  01A9  0DBD               	rlf	___flmul@grs,f
  1584  01AA  0DBE               	rlf	___flmul@grs+1,f
  1585  01AB  0DBF               	rlf	___flmul@grs+2,f
  1586  01AC  0DC0               	rlf	___flmul@grs+3,f
  1587  01AD  0BB7               	decfsz	??___flmul,f
  1588  01AE  29A8               	goto	u1015
  1589  01AF  082F               	movf	___flmul@b,w
  1590  01B0  00B7               	movwf	??___flmul
  1591  01B1  0837               	movf	??___flmul,w
  1592  01B2  00A6               	movwf	__Umul8_16@multiplicand
  1593  01B3  0833               	movf	___flmul@a,w
  1594  01B4  120A  118A  255E  120A  118A  	fcall	__Umul8_16
  1595  01B9  1283               	bcf	3,5	;RP0=0, select bank0
  1596  01BA  1303               	bcf	3,6	;RP1=0, select bank0
  1597  01BB  0827               	movf	?__Umul8_16+1,w
  1598  01BC  00C8               	movwf	___flmul@temp+1
  1599  01BD  0826               	movf	?__Umul8_16,w
  1600  01BE  00C7               	movwf	___flmul@temp
  1601  01BF                     l1195:
  1602  01BF  0847               	movf	___flmul@temp,w
  1603  01C0  00B7               	movwf	??___flmul
  1604  01C1  0848               	movf	___flmul@temp+1,w
  1605  01C2  00B8               	movwf	??___flmul+1
  1606  01C3  01B9               	clrf	??___flmul+2
  1607  01C4  01BA               	clrf	??___flmul+3
  1608  01C5  0837               	movf	??___flmul,w
  1609  01C6  07BD               	addwf	___flmul@grs,f
  1610  01C7  0838               	movf	??___flmul+1,w
  1611  01C8  1103               	clrz
  1612  01C9  1803               	skipnc
  1613  01CA  3E01               	addlw	1
  1614  01CB  1903               	skipnz
  1615  01CC  29CE               	goto	u1021
  1616  01CD  07BE               	addwf	___flmul@grs+1,f
  1617  01CE                     u1021:
  1618  01CE  0839               	movf	??___flmul+2,w
  1619  01CF  1103               	clrz
  1620  01D0  1803               	skipnc
  1621  01D1  3E01               	addlw	1
  1622  01D2  1903               	skipnz
  1623  01D3  29D5               	goto	u1022
  1624  01D4  07BF               	addwf	___flmul@grs+2,f
  1625  01D5                     u1022:
  1626  01D5  083A               	movf	??___flmul+3,w
  1627  01D6  1103               	clrz
  1628  01D7  1803               	skipnc
  1629  01D8  3E01               	addlw	1
  1630  01D9  1903               	skipnz
  1631  01DA  29DC               	goto	u1023
  1632  01DB  07C0               	addwf	___flmul@grs+3,f
  1633  01DC                     u1023:
  1634  01DC                     l1197:
  1635  01DC  0830               	movf	___flmul@b+1,w
  1636  01DD  00B7               	movwf	??___flmul
  1637  01DE  0837               	movf	??___flmul,w
  1638  01DF  00A6               	movwf	__Umul8_16@multiplicand
  1639  01E0  0835               	movf	___flmul@a+2,w
  1640  01E1  120A  118A  255E  120A  118A  	fcall	__Umul8_16
  1641  01E6  1283               	bcf	3,5	;RP0=0, select bank0
  1642  01E7  1303               	bcf	3,6	;RP1=0, select bank0
  1643  01E8  0827               	movf	?__Umul8_16+1,w
  1644  01E9  00C8               	movwf	___flmul@temp+1
  1645  01EA  0826               	movf	?__Umul8_16,w
  1646  01EB  00C7               	movwf	___flmul@temp
  1647  01EC  0847               	movf	___flmul@temp,w
  1648  01ED  00B7               	movwf	??___flmul
  1649  01EE  0848               	movf	___flmul@temp+1,w
  1650  01EF  00B8               	movwf	??___flmul+1
  1651  01F0  01B9               	clrf	??___flmul+2
  1652  01F1  01BA               	clrf	??___flmul+3
  1653  01F2  0837               	movf	??___flmul,w
  1654  01F3  07C3               	addwf	___flmul@prod,f
  1655  01F4  0838               	movf	??___flmul+1,w
  1656  01F5  1103               	clrz
  1657  01F6  1803               	skipnc
  1658  01F7  3E01               	addlw	1
  1659  01F8  1903               	skipnz
  1660  01F9  29FB               	goto	u1031
  1661  01FA  07C4               	addwf	___flmul@prod+1,f
  1662  01FB                     u1031:
  1663  01FB  0839               	movf	??___flmul+2,w
  1664  01FC  1103               	clrz
  1665  01FD  1803               	skipnc
  1666  01FE  3E01               	addlw	1
  1667  01FF  1903               	skipnz
  1668  0200  2A02               	goto	u1032
  1669  0201  07C5               	addwf	___flmul@prod+2,f
  1670  0202                     u1032:
  1671  0202  083A               	movf	??___flmul+3,w
  1672  0203  1103               	clrz
  1673  0204  1803               	skipnc
  1674  0205  3E01               	addlw	1
  1675  0206  1903               	skipnz
  1676  0207  2A09               	goto	u1033
  1677  0208  07C6               	addwf	___flmul@prod+3,f
  1678  0209                     u1033:
  1679  0209                     l1199:
  1680  0209  0831               	movf	___flmul@b+2,w
  1681  020A  00B7               	movwf	??___flmul
  1682  020B  0837               	movf	??___flmul,w
  1683  020C  00A6               	movwf	__Umul8_16@multiplicand
  1684  020D  0834               	movf	___flmul@a+1,w
  1685  020E  120A  118A  255E  120A  118A  	fcall	__Umul8_16
  1686  0213  1283               	bcf	3,5	;RP0=0, select bank0
  1687  0214  1303               	bcf	3,6	;RP1=0, select bank0
  1688  0215  0827               	movf	?__Umul8_16+1,w
  1689  0216  00C8               	movwf	___flmul@temp+1
  1690  0217  0826               	movf	?__Umul8_16,w
  1691  0218  00C7               	movwf	___flmul@temp
  1692  0219                     l1201:
  1693  0219  0847               	movf	___flmul@temp,w
  1694  021A  00B7               	movwf	??___flmul
  1695  021B  0848               	movf	___flmul@temp+1,w
  1696  021C  00B8               	movwf	??___flmul+1
  1697  021D  01B9               	clrf	??___flmul+2
  1698  021E  01BA               	clrf	??___flmul+3
  1699  021F  0837               	movf	??___flmul,w
  1700  0220  07C3               	addwf	___flmul@prod,f
  1701  0221  0838               	movf	??___flmul+1,w
  1702  0222  1103               	clrz
  1703  0223  1803               	skipnc
  1704  0224  3E01               	addlw	1
  1705  0225  1903               	skipnz
  1706  0226  2A28               	goto	u1041
  1707  0227  07C4               	addwf	___flmul@prod+1,f
  1708  0228                     u1041:
  1709  0228  0839               	movf	??___flmul+2,w
  1710  0229  1103               	clrz
  1711  022A  1803               	skipnc
  1712  022B  3E01               	addlw	1
  1713  022C  1903               	skipnz
  1714  022D  2A2F               	goto	u1042
  1715  022E  07C5               	addwf	___flmul@prod+2,f
  1716  022F                     u1042:
  1717  022F  083A               	movf	??___flmul+3,w
  1718  0230  1103               	clrz
  1719  0231  1803               	skipnc
  1720  0232  3E01               	addlw	1
  1721  0233  1903               	skipnz
  1722  0234  2A36               	goto	u1043
  1723  0235  07C6               	addwf	___flmul@prod+3,f
  1724  0236                     u1043:
  1725  0236  0831               	movf	___flmul@b+2,w
  1726  0237  00B7               	movwf	??___flmul
  1727  0238  0837               	movf	??___flmul,w
  1728  0239  00A6               	movwf	__Umul8_16@multiplicand
  1729  023A  0835               	movf	___flmul@a+2,w
  1730  023B  120A  118A  255E  120A  118A  	fcall	__Umul8_16
  1731  0240  1283               	bcf	3,5	;RP0=0, select bank0
  1732  0241  1303               	bcf	3,6	;RP1=0, select bank0
  1733  0242  0827               	movf	?__Umul8_16+1,w
  1734  0243  00C8               	movwf	___flmul@temp+1
  1735  0244  0826               	movf	?__Umul8_16,w
  1736  0245  00C7               	movwf	___flmul@temp
  1737  0246                     l1203:
  1738  0246  0847               	movf	___flmul@temp,w
  1739  0247  00B7               	movwf	??___flmul
  1740  0248  0848               	movf	___flmul@temp+1,w
  1741  0249  00B8               	movwf	??___flmul+1
  1742  024A  01B9               	clrf	??___flmul+2
  1743  024B  01BA               	clrf	??___flmul+3
  1744  024C  3008               	movlw	8
  1745  024D                     u1055:
  1746  024D  1003               	clrc
  1747  024E  0DB7               	rlf	??___flmul,f
  1748  024F  0DB8               	rlf	??___flmul+1,f
  1749  0250  0DB9               	rlf	??___flmul+2,f
  1750  0251  0DBA               	rlf	??___flmul+3,f
  1751  0252                     u1050:
  1752  0252  3EFF               	addlw	-1
  1753  0253  1D03               	skipz
  1754  0254  2A4D               	goto	u1055
  1755  0255  0837               	movf	??___flmul,w
  1756  0256  07C3               	addwf	___flmul@prod,f
  1757  0257  0838               	movf	??___flmul+1,w
  1758  0258  1103               	clrz
  1759  0259  1803               	skipnc
  1760  025A  3E01               	addlw	1
  1761  025B  1903               	skipnz
  1762  025C  2A5E               	goto	u1061
  1763  025D  07C4               	addwf	___flmul@prod+1,f
  1764  025E                     u1061:
  1765  025E  0839               	movf	??___flmul+2,w
  1766  025F  1103               	clrz
  1767  0260  1803               	skipnc
  1768  0261  3E01               	addlw	1
  1769  0262  1903               	skipnz
  1770  0263  2A65               	goto	u1062
  1771  0264  07C5               	addwf	___flmul@prod+2,f
  1772  0265                     u1062:
  1773  0265  083A               	movf	??___flmul+3,w
  1774  0266  1103               	clrz
  1775  0267  1803               	skipnc
  1776  0268  3E01               	addlw	1
  1777  0269  1903               	skipnz
  1778  026A  2A6C               	goto	u1063
  1779  026B  07C6               	addwf	___flmul@prod+3,f
  1780  026C                     u1063:
  1781  026C                     l1205:
  1782  026C  083D               	movf	___flmul@grs,w
  1783  026D  00B7               	movwf	??___flmul
  1784  026E  083E               	movf	___flmul@grs+1,w
  1785  026F  00B8               	movwf	??___flmul+1
  1786  0270  083F               	movf	___flmul@grs+2,w
  1787  0271  00B9               	movwf	??___flmul+2
  1788  0272  0840               	movf	___flmul@grs+3,w
  1789  0273  00BA               	movwf	??___flmul+3
  1790  0274  3018               	movlw	24
  1791  0275                     u1075:
  1792  0275  1003               	clrc
  1793  0276  0CBA               	rrf	??___flmul+3,f
  1794  0277  0CB9               	rrf	??___flmul+2,f
  1795  0278  0CB8               	rrf	??___flmul+1,f
  1796  0279  0CB7               	rrf	??___flmul,f
  1797  027A                     u1070:
  1798  027A  3EFF               	addlw	-1
  1799  027B  1D03               	skipz
  1800  027C  2A75               	goto	u1075
  1801  027D  0837               	movf	??___flmul,w
  1802  027E  07C3               	addwf	___flmul@prod,f
  1803  027F  0838               	movf	??___flmul+1,w
  1804  0280  1103               	clrz
  1805  0281  1803               	skipnc
  1806  0282  3E01               	addlw	1
  1807  0283  1903               	skipnz
  1808  0284  2A86               	goto	u1081
  1809  0285  07C4               	addwf	___flmul@prod+1,f
  1810  0286                     u1081:
  1811  0286  0839               	movf	??___flmul+2,w
  1812  0287  1103               	clrz
  1813  0288  1803               	skipnc
  1814  0289  3E01               	addlw	1
  1815  028A  1903               	skipnz
  1816  028B  2A8D               	goto	u1082
  1817  028C  07C5               	addwf	___flmul@prod+2,f
  1818  028D                     u1082:
  1819  028D  083A               	movf	??___flmul+3,w
  1820  028E  1103               	clrz
  1821  028F  1803               	skipnc
  1822  0290  3E01               	addlw	1
  1823  0291  1903               	skipnz
  1824  0292  2A94               	goto	u1083
  1825  0293  07C6               	addwf	___flmul@prod+3,f
  1826  0294                     u1083:
  1827  0294                     l1207:
  1828  0294  3008               	movlw	8
  1829  0295  00B7               	movwf	??___flmul
  1830  0296                     u1095:
  1831  0296  1003               	clrc
  1832  0297  0DBD               	rlf	___flmul@grs,f
  1833  0298  0DBE               	rlf	___flmul@grs+1,f
  1834  0299  0DBF               	rlf	___flmul@grs+2,f
  1835  029A  0DC0               	rlf	___flmul@grs+3,f
  1836  029B  0BB7               	decfsz	??___flmul,f
  1837  029C  2A96               	goto	u1095
  1838  029D                     l1209:
  1839  029D  0842               	movf	___flmul@bexp,w
  1840  029E  0741               	addwf	___flmul@aexp,w
  1841  029F  00B7               	movwf	??___flmul
  1842  02A0  01B8               	clrf	??___flmul+1
  1843  02A1  0DB8               	rlf	??___flmul+1,f
  1844  02A2  0837               	movf	??___flmul,w
  1845  02A3  3E82               	addlw	130
  1846  02A4  00C7               	movwf	___flmul@temp
  1847  02A5  0838               	movf	??___flmul+1,w
  1848  02A6  1803               	skipnc
  1849  02A7  3E01               	addlw	1
  1850  02A8  3EFF               	addlw	255
  1851  02A9  00C8               	movwf	___flmul@temp+1
  1852  02AA  2AC8               	goto	l1221
  1853  02AB                     l1211:
  1854  02AB  3001               	movlw	1
  1855  02AC  00B7               	movwf	??___flmul
  1856  02AD                     u1105:
  1857  02AD  1003               	clrc
  1858  02AE  0DC3               	rlf	___flmul@prod,f
  1859  02AF  0DC4               	rlf	___flmul@prod+1,f
  1860  02B0  0DC5               	rlf	___flmul@prod+2,f
  1861  02B1  0DC6               	rlf	___flmul@prod+3,f
  1862  02B2  0BB7               	decfsz	??___flmul,f
  1863  02B3  2AAD               	goto	u1105
  1864  02B4                     l1213:
  1865  02B4  1FC0               	btfss	___flmul@grs+3,7
  1866  02B5  2AB7               	goto	u1111
  1867  02B6  2AB8               	goto	u1110
  1868  02B7                     u1111:
  1869  02B7  2AB9               	goto	l1217
  1870  02B8                     u1110:
  1871  02B8                     l1215:
  1872  02B8  1443               	bsf	___flmul@prod,0
  1873  02B9                     l1217:
  1874  02B9  3001               	movlw	1
  1875  02BA  00B7               	movwf	??___flmul
  1876  02BB                     u1125:
  1877  02BB  1003               	clrc
  1878  02BC  0DBD               	rlf	___flmul@grs,f
  1879  02BD  0DBE               	rlf	___flmul@grs+1,f
  1880  02BE  0DBF               	rlf	___flmul@grs+2,f
  1881  02BF  0DC0               	rlf	___flmul@grs+3,f
  1882  02C0  0BB7               	decfsz	??___flmul,f
  1883  02C1  2ABB               	goto	u1125
  1884  02C2                     l1219:
  1885  02C2  30FF               	movlw	255
  1886  02C3  07C7               	addwf	___flmul@temp,f
  1887  02C4  1803               	skipnc
  1888  02C5  0AC8               	incf	___flmul@temp+1,f
  1889  02C6  30FF               	movlw	255
  1890  02C7  07C8               	addwf	___flmul@temp+1,f
  1891  02C8                     l1221:
  1892  02C8  1FC5               	btfss	___flmul@prod+2,7
  1893  02C9  2ACB               	goto	u1131
  1894  02CA  2ACC               	goto	u1130
  1895  02CB                     u1131:
  1896  02CB  2AAB               	goto	l1211
  1897  02CC                     u1130:
  1898  02CC                     l1223:
  1899  02CC  01C1               	clrf	___flmul@aexp
  1900  02CD                     l1225:
  1901  02CD  1FC0               	btfss	___flmul@grs+3,7
  1902  02CE  2AD0               	goto	u1141
  1903  02CF  2AD1               	goto	u1140
  1904  02D0                     u1141:
  1905  02D0  2AED               	goto	l1233
  1906  02D1                     u1140:
  1907  02D1                     l1227:
  1908  02D1  30FF               	movlw	255
  1909  02D2  053D               	andwf	___flmul@grs,w
  1910  02D3  00B7               	movwf	??___flmul
  1911  02D4  30FF               	movlw	255
  1912  02D5  053E               	andwf	___flmul@grs+1,w
  1913  02D6  00B8               	movwf	??___flmul+1
  1914  02D7  30FF               	movlw	255
  1915  02D8  053F               	andwf	___flmul@grs+2,w
  1916  02D9  00B9               	movwf	??___flmul+2
  1917  02DA  307F               	movlw	127
  1918  02DB  0540               	andwf	___flmul@grs+3,w
  1919  02DC  00BA               	movwf	??___flmul+3
  1920  02DD  083A               	movf	??___flmul+3,w
  1921  02DE  0439               	iorwf	??___flmul+2,w
  1922  02DF  0438               	iorwf	??___flmul+1,w
  1923  02E0  0437               	iorwf	??___flmul,w
  1924  02E1  1903               	skipnz
  1925  02E2  2AE4               	goto	u1151
  1926  02E3  2AE5               	goto	u1150
  1927  02E4                     u1151:
  1928  02E4  2AE8               	goto	l594
  1929  02E5                     u1150:
  1930  02E5                     l1229:
  1931  02E5  01C1               	clrf	___flmul@aexp
  1932  02E6  0AC1               	incf	___flmul@aexp,f
  1933  02E7  2AED               	goto	l1233
  1934  02E8                     l594:
  1935  02E8  1C43               	btfss	___flmul@prod,0
  1936  02E9  2AEB               	goto	u1161
  1937  02EA  2AEC               	goto	u1160
  1938  02EB                     u1161:
  1939  02EB  2AED               	goto	l1233
  1940  02EC                     u1160:
  1941  02EC  2AE5               	goto	l1229
  1942  02ED                     l1233:
  1943  02ED  0841               	movf	___flmul@aexp,w
  1944  02EE  1903               	btfsc	3,2
  1945  02EF  2AF1               	goto	u1171
  1946  02F0  2AF2               	goto	u1170
  1947  02F1                     u1171:
  1948  02F1  2B23               	goto	l1243
  1949  02F2                     u1170:
  1950  02F2                     l1235:
  1951  02F2  3001               	movlw	1
  1952  02F3  07C3               	addwf	___flmul@prod,f
  1953  02F4  3000               	movlw	0
  1954  02F5  1803               	skipnc
  1955  02F6  3001               	movlw	1
  1956  02F7  07C4               	addwf	___flmul@prod+1,f
  1957  02F8  3000               	movlw	0
  1958  02F9  1803               	skipnc
  1959  02FA  3001               	movlw	1
  1960  02FB  07C5               	addwf	___flmul@prod+2,f
  1961  02FC  3000               	movlw	0
  1962  02FD  1803               	skipnc
  1963  02FE  3001               	movlw	1
  1964  02FF  07C6               	addwf	___flmul@prod+3,f
  1965  0300                     l1237:
  1966  0300  1C46               	btfss	___flmul@prod+3,0
  1967  0301  2B03               	goto	u1181
  1968  0302  2B04               	goto	u1180
  1969  0303                     u1181:
  1970  0303  2B23               	goto	l1243
  1971  0304                     u1180:
  1972  0304                     l1239:
  1973  0304  0843               	movf	___flmul@prod,w
  1974  0305  00B7               	movwf	??___flmul
  1975  0306  0844               	movf	___flmul@prod+1,w
  1976  0307  00B8               	movwf	??___flmul+1
  1977  0308  0845               	movf	___flmul@prod+2,w
  1978  0309  00B9               	movwf	??___flmul+2
  1979  030A  0846               	movf	___flmul@prod+3,w
  1980  030B  00BA               	movwf	??___flmul+3
  1981  030C  3001               	movlw	1
  1982  030D  00BB               	movwf	??___flmul+4
  1983  030E                     u1195:
  1984  030E  0D3A               	rlf	??___flmul+3,w
  1985  030F  0CBA               	rrf	??___flmul+3,f
  1986  0310  0CB9               	rrf	??___flmul+2,f
  1987  0311  0CB8               	rrf	??___flmul+1,f
  1988  0312  0CB7               	rrf	??___flmul,f
  1989  0313                     u1190:
  1990  0313  0BBB               	decfsz	??___flmul+4,f
  1991  0314  2B0E               	goto	u1195
  1992  0315  083A               	movf	??___flmul+3,w
  1993  0316  00C6               	movwf	___flmul@prod+3
  1994  0317  0839               	movf	??___flmul+2,w
  1995  0318  00C5               	movwf	___flmul@prod+2
  1996  0319  0838               	movf	??___flmul+1,w
  1997  031A  00C4               	movwf	___flmul@prod+1
  1998  031B  0837               	movf	??___flmul,w
  1999  031C  00C3               	movwf	___flmul@prod
  2000  031D                     l1241:
  2001  031D  3001               	movlw	1
  2002  031E  07C7               	addwf	___flmul@temp,f
  2003  031F  1803               	skipnc
  2004  0320  0AC8               	incf	___flmul@temp+1,f
  2005  0321  3000               	movlw	0
  2006  0322  07C8               	addwf	___flmul@temp+1,f
  2007  0323                     l1243:
  2008  0323  0848               	movf	___flmul@temp+1,w
  2009  0324  3A80               	xorlw	128
  2010  0325  00FF               	movwf	btemp+1
  2011  0326  3080               	movlw	128
  2012  0327  027F               	subwf	btemp+1,w
  2013  0328  1D03               	skipz
  2014  0329  2B2C               	goto	u1205
  2015  032A  30FF               	movlw	255
  2016  032B  0247               	subwf	___flmul@temp,w
  2017  032C                     u1205:
  2018  032C  1C03               	skipc
  2019  032D  2B2F               	goto	u1201
  2020  032E  2B30               	goto	u1200
  2021  032F                     u1201:
  2022  032F  2B3B               	goto	l1247
  2023  0330                     u1200:
  2024  0330                     l1245:
  2025  0330  307F               	movlw	127
  2026  0331  1283               	bcf	3,5	;RP0=0, select bank0
  2027  0332  1303               	bcf	3,6	;RP1=0, select bank0
  2028  0333  00C6               	movwf	___flmul@prod+3
  2029  0334  3080               	movlw	128
  2030  0335  00C5               	movwf	___flmul@prod+2
  2031  0336  3000               	movlw	0
  2032  0337  00C4               	movwf	___flmul@prod+1
  2033  0338  3000               	movlw	0
  2034  0339  00C3               	movwf	___flmul@prod
  2035  033A  2B70               	goto	l600
  2036  033B                     l1247:
  2037  033B  1283               	bcf	3,5	;RP0=0, select bank0
  2038  033C  1303               	bcf	3,6	;RP1=0, select bank0
  2039  033D  0848               	movf	___flmul@temp+1,w
  2040  033E  3A80               	xorlw	128
  2041  033F  00FF               	movwf	btemp+1
  2042  0340  3080               	movlw	128
  2043  0341  027F               	subwf	btemp+1,w
  2044  0342  1D03               	skipz
  2045  0343  2B46               	goto	u1215
  2046  0344  3001               	movlw	1
  2047  0345  0247               	subwf	___flmul@temp,w
  2048  0346                     u1215:
  2049  0346  1803               	skipnc
  2050  0347  2B49               	goto	u1211
  2051  0348  2B4A               	goto	u1210
  2052  0349                     u1211:
  2053  0349  2B56               	goto	l1253
  2054  034A                     u1210:
  2055  034A                     l1249:
  2056  034A  3000               	movlw	0
  2057  034B  1283               	bcf	3,5	;RP0=0, select bank0
  2058  034C  1303               	bcf	3,6	;RP1=0, select bank0
  2059  034D  00C6               	movwf	___flmul@prod+3
  2060  034E  3000               	movlw	0
  2061  034F  00C5               	movwf	___flmul@prod+2
  2062  0350  3000               	movlw	0
  2063  0351  00C4               	movwf	___flmul@prod+1
  2064  0352  3000               	movlw	0
  2065  0353  00C3               	movwf	___flmul@prod
  2066  0354                     l1251:
  2067  0354  01BC               	clrf	___flmul@sign
  2068  0355  2B70               	goto	l600
  2069  0356                     l1253:
  2070  0356  1283               	bcf	3,5	;RP0=0, select bank0
  2071  0357  1303               	bcf	3,6	;RP1=0, select bank0
  2072  0358  0847               	movf	___flmul@temp,w
  2073  0359  00B7               	movwf	??___flmul
  2074  035A  0837               	movf	??___flmul,w
  2075  035B  00C2               	movwf	___flmul@bexp
  2076  035C  30FF               	movlw	255
  2077  035D  05C3               	andwf	___flmul@prod,f
  2078  035E  30FF               	movlw	255
  2079  035F  05C4               	andwf	___flmul@prod+1,f
  2080  0360  307F               	movlw	127
  2081  0361  05C5               	andwf	___flmul@prod+2,f
  2082  0362  3000               	movlw	0
  2083  0363  05C6               	andwf	___flmul@prod+3,f
  2084  0364                     l1255:
  2085  0364  1C42               	btfss	___flmul@bexp,0
  2086  0365  2B67               	goto	u1221
  2087  0366  2B68               	goto	u1220
  2088  0367                     u1221:
  2089  0367  2B69               	goto	l1259
  2090  0368                     u1220:
  2091  0368                     l1257:
  2092  0368  17C5               	bsf	___flmul@prod+2,7
  2093  0369                     l1259:
  2094  0369  0842               	movf	___flmul@bexp,w
  2095  036A  00B7               	movwf	??___flmul
  2096  036B  1003               	clrc
  2097  036C  0C37               	rrf	??___flmul,w
  2098  036D  00B8               	movwf	??___flmul+1
  2099  036E  0838               	movf	??___flmul+1,w
  2100  036F  00C6               	movwf	___flmul@prod+3
  2101  0370                     l600:
  2102  0370  083C               	movf	___flmul@sign,w
  2103  0371  00B7               	movwf	??___flmul
  2104  0372  0837               	movf	??___flmul,w
  2105  0373  04C6               	iorwf	___flmul@prod+3,f
  2106  0374                     l1261:
  2107  0374  0846               	movf	___flmul@prod+3,w
  2108  0375  00B2               	movwf	?___flmul+3
  2109  0376  0845               	movf	___flmul@prod+2,w
  2110  0377  00B1               	movwf	?___flmul+2
  2111  0378  0844               	movf	___flmul@prod+1,w
  2112  0379  00B0               	movwf	?___flmul+1
  2113  037A  0843               	movf	___flmul@prod,w
  2114  037B  00AF               	movwf	?___flmul
  2115  037C                     l588:
  2116  037C  0008               	return
  2117  037D                     __end_of___flmul:
  2118                           
  2119                           	psect	text3
  2120  055E                     __ptext3:	
  2121 ;; *************** function __Umul8_16 *****************
  2122 ;; Defined at:
  2123 ;;		line 4 in file "C:\Program Files\Microchip\xc8\v2.31\pic\sources\c90\common\Umul8_16.c"
  2124 ;; Parameters:    Size  Location     Type
  2125 ;;  multiplier      1    wreg     unsigned char 
  2126 ;;  multiplicand    1    6[BANK0 ] unsigned char 
  2127 ;; Auto vars:     Size  Location     Type
  2128 ;;  multiplier      1   14[BANK0 ] unsigned char 
  2129 ;;  word_mpld       2   12[BANK0 ] unsigned int 
  2130 ;;  product         2   10[BANK0 ] unsigned int 
  2131 ;; Return value:  Size  Location     Type
  2132 ;;                  2    6[BANK0 ] unsigned int 
  2133 ;; Registers used:
  2134 ;;		wreg, status,2, status,0
  2135 ;; Tracked objects:
  2136 ;;		On entry : 0/0
  2137 ;;		On exit  : 0/0
  2138 ;;		Unchanged: 0/0
  2139 ;; Data sizes:     COMMON   BANK0   BANK1   BANK3   BANK2
  2140 ;;      Params:         0       2       0       0       0
  2141 ;;      Locals:         0       5       0       0       0
  2142 ;;      Temps:          0       2       0       0       0
  2143 ;;      Totals:         0       9       0       0       0
  2144 ;;Total ram usage:        9 bytes
  2145 ;; Hardware stack levels used:    1
  2146 ;; Hardware stack levels required when called:    2
  2147 ;; This function calls:
  2148 ;;		Nothing
  2149 ;; This function is called by:
  2150 ;;		___flmul
  2151 ;; This function uses a non-reentrant model
  2152 ;;
  2153                           
  2154                           
  2155                           ;psect for function __Umul8_16
  2156  055E                     __Umul8_16:
  2157                           
  2158                           ;incstack = 0
  2159                           ; Regs used in __Umul8_16: [wreg+status,2+status,0]
  2160                           ;__Umul8_16@multiplier stored from wreg
  2161  055E  1283               	bcf	3,5	;RP0=0, select bank0
  2162  055F  1303               	bcf	3,6	;RP1=0, select bank0
  2163  0560  00AE               	movwf	__Umul8_16@multiplier
  2164  0561                     l1073:
  2165  0561  01AA               	clrf	__Umul8_16@product
  2166  0562  01AB               	clrf	__Umul8_16@product+1
  2167  0563                     l1075:
  2168  0563  0826               	movf	__Umul8_16@multiplicand,w
  2169  0564  00A8               	movwf	??__Umul8_16
  2170  0565  01A9               	clrf	??__Umul8_16+1
  2171  0566  0828               	movf	??__Umul8_16,w
  2172  0567  00AC               	movwf	__Umul8_16@word_mpld
  2173  0568  0829               	movf	??__Umul8_16+1,w
  2174  0569  00AD               	movwf	__Umul8_16@word_mpld+1
  2175  056A                     l1077:
  2176  056A  1C2E               	btfss	__Umul8_16@multiplier,0
  2177  056B  2D6D               	goto	u731
  2178  056C  2D6E               	goto	u730
  2179  056D                     u731:
  2180  056D  2D74               	goto	l607
  2181  056E                     u730:
  2182  056E                     l1079:
  2183  056E  082C               	movf	__Umul8_16@word_mpld,w
  2184  056F  07AA               	addwf	__Umul8_16@product,f
  2185  0570  1803               	skipnc
  2186  0571  0AAB               	incf	__Umul8_16@product+1,f
  2187  0572  082D               	movf	__Umul8_16@word_mpld+1,w
  2188  0573  07AB               	addwf	__Umul8_16@product+1,f
  2189  0574                     l607:
  2190  0574  3001               	movlw	1
  2191  0575                     u745:
  2192  0575  1003               	clrc
  2193  0576  0DAC               	rlf	__Umul8_16@word_mpld,f
  2194  0577  0DAD               	rlf	__Umul8_16@word_mpld+1,f
  2195  0578  3EFF               	addlw	-1
  2196  0579  1D03               	skipz
  2197  057A  2D75               	goto	u745
  2198  057B  1003               	clrc
  2199  057C  0CAE               	rrf	__Umul8_16@multiplier,f
  2200  057D                     l1081:
  2201  057D  082E               	movf	__Umul8_16@multiplier,w
  2202  057E  1D03               	btfss	3,2
  2203  057F  2D81               	goto	u751
  2204  0580  2D82               	goto	u750
  2205  0581                     u751:
  2206  0581  2D6A               	goto	l1077
  2207  0582                     u750:
  2208  0582                     l1083:
  2209  0582  082B               	movf	__Umul8_16@product+1,w
  2210  0583  00A7               	movwf	?__Umul8_16+1
  2211  0584  082A               	movf	__Umul8_16@product,w
  2212  0585  00A6               	movwf	?__Umul8_16
  2213  0586                     l609:
  2214  0586  0008               	return
  2215  0587                     __end_of__Umul8_16:
  2216                           
  2217                           	psect	text4
  2218  05CD                     __ptext4:	
  2219 ;; *************** function _SYSTEM_Initialize *****************
  2220 ;; Defined at:
  2221 ;;		line 12 in file "lcs.c"
  2222 ;; Parameters:    Size  Location     Type
  2223 ;;		None
  2224 ;; Auto vars:     Size  Location     Type
  2225 ;;		None
  2226 ;; Return value:  Size  Location     Type
  2227 ;;                  1    wreg      void 
  2228 ;; Registers used:
  2229 ;;		wreg, status,2, status,0, pclath, cstack
  2230 ;; Tracked objects:
  2231 ;;		On entry : 0/0
  2232 ;;		On exit  : 0/0
  2233 ;;		Unchanged: 0/0
  2234 ;; Data sizes:     COMMON   BANK0   BANK1   BANK3   BANK2
  2235 ;;      Params:         0       0       0       0       0
  2236 ;;      Locals:         0       0       0       0       0
  2237 ;;      Temps:          0       0       0       0       0
  2238 ;;      Totals:         0       0       0       0       0
  2239 ;;Total ram usage:        0 bytes
  2240 ;; Hardware stack levels used:    1
  2241 ;; Hardware stack levels required when called:    3
  2242 ;; This function calls:
  2243 ;;		_ADC_Initialize
  2244 ;;		_PORTS_MANAGER_Initialize
  2245 ;;		_SPI_MANAGER_Initialize
  2246 ;; This function is called by:
  2247 ;;		_main
  2248 ;; This function uses a non-reentrant model
  2249 ;;
  2250                           
  2251                           
  2252                           ;psect for function _SYSTEM_Initialize
  2253  05CD                     _SYSTEM_Initialize:
  2254  05CD                     l1087:	
  2255                           ;incstack = 0
  2256                           ; Regs used in _SYSTEM_Initialize: [wreg+status,2+status,0+pclath+cstack]
  2257                           
  2258                           
  2259                           ;lcs.c: 13:     PORTS_MANAGER_Initialize();
  2260  05CD  120A  118A  2587  120A  118A  	fcall	_PORTS_MANAGER_Initialize
  2261                           
  2262                           ;lcs.c: 14:     ADC_Initialize();
  2263  05D2  120A  118A  25BB  120A  118A  	fcall	_ADC_Initialize
  2264                           
  2265                           ;lcs.c: 15:     SPI_MANAGER_Initialize();
  2266  05D7  120A  118A  25A8  120A  118A  	fcall	_SPI_MANAGER_Initialize
  2267  05DC                     l49:
  2268  05DC  0008               	return
  2269  05DD                     __end_of_SYSTEM_Initialize:
  2270                           
  2271                           	psect	text5
  2272  05A8                     __ptext5:	
  2273 ;; *************** function _SPI_MANAGER_Initialize *****************
  2274 ;; Defined at:
  2275 ;;		line 11 in file "spi.c"
  2276 ;; Parameters:    Size  Location     Type
  2277 ;;		None
  2278 ;; Auto vars:     Size  Location     Type
  2279 ;;		None
  2280 ;; Return value:  Size  Location     Type
  2281 ;;                  1    wreg      void 
  2282 ;; Registers used:
  2283 ;;		wreg, status,2
  2284 ;; Tracked objects:
  2285 ;;		On entry : 0/0
  2286 ;;		On exit  : 0/0
  2287 ;;		Unchanged: 0/0
  2288 ;; Data sizes:     COMMON   BANK0   BANK1   BANK3   BANK2
  2289 ;;      Params:         0       0       0       0       0
  2290 ;;      Locals:         0       0       0       0       0
  2291 ;;      Temps:          0       0       0       0       0
  2292 ;;      Totals:         0       0       0       0       0
  2293 ;;Total ram usage:        0 bytes
  2294 ;; Hardware stack levels used:    1
  2295 ;; Hardware stack levels required when called:    2
  2296 ;; This function calls:
  2297 ;;		Nothing
  2298 ;; This function is called by:
  2299 ;;		_SYSTEM_Initialize
  2300 ;; This function uses a non-reentrant model
  2301 ;;
  2302                           
  2303                           
  2304                           ;psect for function _SPI_MANAGER_Initialize
  2305  05A8                     _SPI_MANAGER_Initialize:
  2306  05A8                     l1047:	
  2307                           ;incstack = 0
  2308                           ; Regs used in _SPI_MANAGER_Initialize: [wreg+status,2]
  2309                           
  2310                           
  2311                           ;spi.c: 13:     TRISCbits.TRISC3 = 1;
  2312  05A8  1683               	bsf	3,5	;RP0=1, select bank1
  2313  05A9  1303               	bcf	3,6	;RP1=0, select bank1
  2314  05AA  1587               	bsf	7,3	;volatile
  2315                           
  2316                           ;spi.c: 14:     TRISCbits.TRISC5 = 0;
  2317  05AB  1287               	bcf	7,5	;volatile
  2318                           
  2319                           ;spi.c: 15:     TRISAbits.TRISA5 = 1;
  2320  05AC  1685               	bsf	5,5	;volatile
  2321  05AD                     l1049:
  2322                           
  2323                           ;spi.c: 16:     SSPCON = 0b00100100;
  2324  05AD  3024               	movlw	36
  2325  05AE  1283               	bcf	3,5	;RP0=0, select bank0
  2326  05AF  1303               	bcf	3,6	;RP1=0, select bank0
  2327  05B0  0094               	movwf	20	;volatile
  2328  05B1                     l1051:
  2329                           
  2330                           ;spi.c: 17:     SSPSTAT = 0;
  2331  05B1  1683               	bsf	3,5	;RP0=1, select bank1
  2332  05B2  1303               	bcf	3,6	;RP1=0, select bank1
  2333  05B3  0194               	clrf	20	;volatile
  2334  05B4                     l1053:
  2335                           
  2336                           ;spi.c: 19:     PIR1bits.SSPIF = 0;
  2337  05B4  1283               	bcf	3,5	;RP0=0, select bank0
  2338  05B5  1303               	bcf	3,6	;RP1=0, select bank0
  2339  05B6  118C               	bcf	12,3	;volatile
  2340  05B7                     l1055:
  2341                           
  2342                           ;spi.c: 20:     PIE1bits.SSPIE = 1;
  2343  05B7  1683               	bsf	3,5	;RP0=1, select bank1
  2344  05B8  1303               	bcf	3,6	;RP1=0, select bank1
  2345  05B9  158C               	bsf	12,3	;volatile
  2346  05BA                     l40:
  2347  05BA  0008               	return
  2348  05BB                     __end_of_SPI_MANAGER_Initialize:
  2349                           
  2350                           	psect	text6
  2351  0587                     __ptext6:	
  2352 ;; *************** function _PORTS_MANAGER_Initialize *****************
  2353 ;; Defined at:
  2354 ;;		line 11 in file "ports_manager.c"
  2355 ;; Parameters:    Size  Location     Type
  2356 ;;		None
  2357 ;; Auto vars:     Size  Location     Type
  2358 ;;		None
  2359 ;; Return value:  Size  Location     Type
  2360 ;;                  1    wreg      void 
  2361 ;; Registers used:
  2362 ;;		wreg, status,2
  2363 ;; Tracked objects:
  2364 ;;		On entry : 0/0
  2365 ;;		On exit  : 0/0
  2366 ;;		Unchanged: 0/0
  2367 ;; Data sizes:     COMMON   BANK0   BANK1   BANK3   BANK2
  2368 ;;      Params:         0       0       0       0       0
  2369 ;;      Locals:         0       0       0       0       0
  2370 ;;      Temps:          0       0       0       0       0
  2371 ;;      Totals:         0       0       0       0       0
  2372 ;;Total ram usage:        0 bytes
  2373 ;; Hardware stack levels used:    1
  2374 ;; Hardware stack levels required when called:    2
  2375 ;; This function calls:
  2376 ;;		Nothing
  2377 ;; This function is called by:
  2378 ;;		_SYSTEM_Initialize
  2379 ;; This function uses a non-reentrant model
  2380 ;;
  2381                           
  2382                           
  2383                           ;psect for function _PORTS_MANAGER_Initialize
  2384  0587                     _PORTS_MANAGER_Initialize:
  2385  0587                     l1025:	
  2386                           ;incstack = 0
  2387                           ; Regs used in _PORTS_MANAGER_Initialize: [wreg+status,2]
  2388                           
  2389                           
  2390                           ;ports_manager.c: 13:     ANSEL = 0b00000001;
  2391  0587  3001               	movlw	1
  2392  0588  1683               	bsf	3,5	;RP0=1, select bank3
  2393  0589  1703               	bsf	3,6	;RP1=1, select bank3
  2394  058A  0088               	movwf	8	;volatile
  2395  058B                     l1027:
  2396                           
  2397                           ;ports_manager.c: 14:     TRISAbits.TRISA0 = 1;
  2398  058B  1683               	bsf	3,5	;RP0=1, select bank1
  2399  058C  1303               	bcf	3,6	;RP1=0, select bank1
  2400  058D  1405               	bsf	5,0	;volatile
  2401  058E                     l1029:
  2402                           
  2403                           ;ports_manager.c: 15:     PORTA = 0;
  2404  058E  1283               	bcf	3,5	;RP0=0, select bank0
  2405  058F  1303               	bcf	3,6	;RP1=0, select bank0
  2406  0590  0185               	clrf	5	;volatile
  2407  0591                     l1031:
  2408                           
  2409                           ;ports_manager.c: 17:     ANSELH = 0;
  2410  0591  1683               	bsf	3,5	;RP0=1, select bank3
  2411  0592  1703               	bsf	3,6	;RP1=1, select bank3
  2412  0593  0189               	clrf	9	;volatile
  2413  0594                     l1033:
  2414                           
  2415                           ;ports_manager.c: 18:     TRISB = 0;
  2416  0594  1683               	bsf	3,5	;RP0=1, select bank1
  2417  0595  1303               	bcf	3,6	;RP1=0, select bank1
  2418  0596  0186               	clrf	6	;volatile
  2419  0597                     l1035:
  2420                           
  2421                           ;ports_manager.c: 19:     PORTB = 0;
  2422  0597  1283               	bcf	3,5	;RP0=0, select bank0
  2423  0598  1303               	bcf	3,6	;RP1=0, select bank0
  2424  0599  0186               	clrf	6	;volatile
  2425  059A                     l1037:
  2426                           
  2427                           ;ports_manager.c: 20:     IOCB = 0;
  2428  059A  1683               	bsf	3,5	;RP0=1, select bank1
  2429  059B  1303               	bcf	3,6	;RP1=0, select bank1
  2430  059C  0196               	clrf	22	;volatile
  2431  059D                     l1039:
  2432                           
  2433                           ;ports_manager.c: 22:     TRISD = 0;
  2434  059D  0188               	clrf	8	;volatile
  2435  059E                     l1041:
  2436                           
  2437                           ;ports_manager.c: 23:     PORTD = 0;
  2438  059E  1283               	bcf	3,5	;RP0=0, select bank0
  2439  059F  1303               	bcf	3,6	;RP1=0, select bank0
  2440  05A0  0188               	clrf	8	;volatile
  2441  05A1                     l1043:
  2442                           
  2443                           ;ports_manager.c: 25:     TRISE = 0;
  2444  05A1  1683               	bsf	3,5	;RP0=1, select bank1
  2445  05A2  1303               	bcf	3,6	;RP1=0, select bank1
  2446  05A3  0189               	clrf	9	;volatile
  2447  05A4                     l1045:
  2448                           
  2449                           ;ports_manager.c: 26:     PORTE = 0;
  2450  05A4  1283               	bcf	3,5	;RP0=0, select bank0
  2451  05A5  1303               	bcf	3,6	;RP1=0, select bank0
  2452  05A6  0189               	clrf	9	;volatile
  2453  05A7                     l25:
  2454  05A7  0008               	return
  2455  05A8                     __end_of_PORTS_MANAGER_Initialize:
  2456                           
  2457                           	psect	text7
  2458  05BB                     __ptext7:	
  2459 ;; *************** function _ADC_Initialize *****************
  2460 ;; Defined at:
  2461 ;;		line 12 in file "adc.c"
  2462 ;; Parameters:    Size  Location     Type
  2463 ;;		None
  2464 ;; Auto vars:     Size  Location     Type
  2465 ;;		None
  2466 ;; Return value:  Size  Location     Type
  2467 ;;                  1    wreg      void 
  2468 ;; Registers used:
  2469 ;;		wreg, status,2
  2470 ;; Tracked objects:
  2471 ;;		On entry : 0/0
  2472 ;;		On exit  : 0/0
  2473 ;;		Unchanged: 0/0
  2474 ;; Data sizes:     COMMON   BANK0   BANK1   BANK3   BANK2
  2475 ;;      Params:         0       0       0       0       0
  2476 ;;      Locals:         0       0       0       0       0
  2477 ;;      Temps:          0       0       0       0       0
  2478 ;;      Totals:         0       0       0       0       0
  2479 ;;Total ram usage:        0 bytes
  2480 ;; Hardware stack levels used:    1
  2481 ;; Hardware stack levels required when called:    2
  2482 ;; This function calls:
  2483 ;;		Nothing
  2484 ;; This function is called by:
  2485 ;;		_SYSTEM_Initialize
  2486 ;; This function uses a non-reentrant model
  2487 ;;
  2488                           
  2489                           
  2490                           ;psect for function _ADC_Initialize
  2491  05BB                     _ADC_Initialize:
  2492  05BB                     l1057:	
  2493                           ;incstack = 0
  2494                           ; Regs used in _ADC_Initialize: [wreg+status,2]
  2495                           
  2496                           
  2497                           ;adc.c: 14:     ADCON0 = 0b10000001;
  2498  05BB  3081               	movlw	129
  2499  05BC  1283               	bcf	3,5	;RP0=0, select bank0
  2500  05BD  1303               	bcf	3,6	;RP1=0, select bank0
  2501  05BE  009F               	movwf	31	;volatile
  2502  05BF                     l1059:
  2503                           
  2504                           ;adc.c: 15:     ADCON1 = 0x00;
  2505  05BF  1683               	bsf	3,5	;RP0=1, select bank1
  2506  05C0  1303               	bcf	3,6	;RP1=0, select bank1
  2507  05C1  019F               	clrf	31	;volatile
  2508  05C2                     l1061:
  2509                           
  2510                           ;adc.c: 16:     ADRESL = 0x00;
  2511  05C2  019E               	clrf	30	;volatile
  2512  05C3                     l1063:
  2513                           
  2514                           ;adc.c: 17:     ADRESH = 0x00;
  2515  05C3  1283               	bcf	3,5	;RP0=0, select bank0
  2516  05C4  1303               	bcf	3,6	;RP1=0, select bank0
  2517  05C5  019E               	clrf	30	;volatile
  2518  05C6                     l1065:
  2519                           
  2520                           ;adc.c: 18:     PIR1bits.ADIF = 1;
  2521  05C6  170C               	bsf	12,6	;volatile
  2522  05C7                     l1067:
  2523                           
  2524                           ;adc.c: 19:     PIE1bits.ADIE = 1;
  2525  05C7  1683               	bsf	3,5	;RP0=1, select bank1
  2526  05C8  1303               	bcf	3,6	;RP1=0, select bank1
  2527  05C9  170C               	bsf	12,6	;volatile
  2528  05CA                     l1069:
  2529                           
  2530                           ;adc.c: 20:     INTCONbits.PEIE = 1;
  2531  05CA  170B               	bsf	11,6	;volatile
  2532  05CB                     l1071:
  2533                           
  2534                           ;adc.c: 21:     INTCONbits.GIE = 1;
  2535  05CB  178B               	bsf	11,7	;volatile
  2536  05CC                     l113:
  2537  05CC  0008               	return
  2538  05CD                     __end_of_ADC_Initialize:
  2539                           
  2540                           	psect	text8
  2541  0513                     __ptext8:	
  2542 ;; *************** function _myISR *****************
  2543 ;; Defined at:
  2544 ;;		line 29 in file "main.c"
  2545 ;; Parameters:    Size  Location     Type
  2546 ;;		None
  2547 ;; Auto vars:     Size  Location     Type
  2548 ;;		None
  2549 ;; Return value:  Size  Location     Type
  2550 ;;                  1    wreg      void 
  2551 ;; Registers used:
  2552 ;;		wreg, status,2, status,0, pclath, cstack
  2553 ;; Tracked objects:
  2554 ;;		On entry : 0/0
  2555 ;;		On exit  : 0/0
  2556 ;;		Unchanged: 0/0
  2557 ;; Data sizes:     COMMON   BANK0   BANK1   BANK3   BANK2
  2558 ;;      Params:         0       0       0       0       0
  2559 ;;      Locals:         0       0       0       0       0
  2560 ;;      Temps:          0       6       0       0       0
  2561 ;;      Totals:         0       6       0       0       0
  2562 ;;Total ram usage:        6 bytes
  2563 ;; Hardware stack levels used:    1
  2564 ;; Hardware stack levels required when called:    1
  2565 ;; This function calls:
  2566 ;;		___xxtofl
  2567 ;; This function is called by:
  2568 ;;		Interrupt level 1
  2569 ;; This function uses a non-reentrant model
  2570 ;;
  2571                           
  2572                           
  2573                           ;psect for function _myISR
  2574  0513                     _myISR:
  2575  0513                     i1l1309:
  2576                           
  2577                           ;main.c: 31:     if (PIR1bits.ADIF == 1 && ADCON0bits.GO_nDONE == 0){
  2578  0513  1F0C               	btfss	12,6	;volatile
  2579  0514  2D16               	goto	u137_21
  2580  0515  2D17               	goto	u137_20
  2581  0516                     u137_21:
  2582  0516  2D43               	goto	i1l1321
  2583  0517                     u137_20:
  2584  0517                     i1l1311:
  2585  0517  189F               	btfsc	31,1	;volatile
  2586  0518  2D1A               	goto	u138_21
  2587  0519  2D1B               	goto	u138_20
  2588  051A                     u138_21:
  2589  051A  2D43               	goto	i1l1321
  2590  051B                     u138_20:
  2591  051B                     i1l1313:
  2592                           
  2593                           ;main.c: 32:         temperature_float = ADRESH;
  2594  051B  081E               	movf	30,w	;volatile
  2595  051C  00A0               	movwf	??_myISR
  2596  051D  01A1               	clrf	??_myISR+1
  2597  051E  01A2               	clrf	??_myISR+2
  2598  051F  01A3               	clrf	??_myISR+3
  2599  0520  0823               	movf	??_myISR+3,w
  2600  0521  00F3               	movwf	___xxtofl@val+3
  2601  0522  0822               	movf	??_myISR+2,w
  2602  0523  00F2               	movwf	___xxtofl@val+2
  2603  0524  0821               	movf	??_myISR+1,w
  2604  0525  00F1               	movwf	___xxtofl@val+1
  2605  0526  0820               	movf	??_myISR,w
  2606  0527  00F0               	movwf	___xxtofl@val
  2607  0528  3000               	movlw	0
  2608  0529  120A  118A  237D  120A  118A  	fcall	___xxtofl
  2609  052E  0873               	movf	?___xxtofl+3,w
  2610  052F  1283               	bcf	3,5	;RP0=0, select bank0
  2611  0530  1303               	bcf	3,6	;RP1=0, select bank0
  2612  0531  00D7               	movwf	_temperature_float+3
  2613  0532  0872               	movf	?___xxtofl+2,w
  2614  0533  00D6               	movwf	_temperature_float+2
  2615  0534  0871               	movf	?___xxtofl+1,w
  2616  0535  00D5               	movwf	_temperature_float+1
  2617  0536  0870               	movf	?___xxtofl,w
  2618  0537  00D4               	movwf	_temperature_float
  2619  0538                     i1l1315:
  2620                           
  2621                           ;main.c: 33:         _delay((unsigned long)((35)*(8000000/4000000.0)));
  2622  0538  3016               	movlw	22
  2623  0539  1283               	bcf	3,5	;RP0=0, select bank0
  2624  053A  1303               	bcf	3,6	;RP1=0, select bank0
  2625  053B  00A0               	movwf	??_myISR
  2626  053C                     u145_27:
  2627  053C  0BA0               	decfsz	??_myISR,f
  2628  053D  2D3C               	goto	u145_27
  2629  053E  0000               	nop
  2630  053F                     i1l1317:
  2631  053F  1283               	bcf	3,5	;RP0=0, select bank0
  2632  0540  1303               	bcf	3,6	;RP1=0, select bank0
  2633  0541  130C               	bcf	12,6	;volatile
  2634  0542                     i1l1319:
  2635  0542  149F               	bsf	31,1	;volatile
  2636  0543                     i1l1321:
  2637                           
  2638                           ;main.c: 38:     if(PIR1bits.SSPIF){
  2639  0543  1D8C               	btfss	12,3	;volatile
  2640  0544  2D46               	goto	u139_21
  2641  0545  2D47               	goto	u139_20
  2642  0546                     u139_21:
  2643  0546  2D57               	goto	i1l83
  2644  0547                     u139_20:
  2645  0547                     i1l1323:
  2646                           
  2647                           ;main.c: 39:         if(!SSPSTATbits.BF){
  2648  0547  1683               	bsf	3,5	;RP0=1, select bank1
  2649  0548  1303               	bcf	3,6	;RP1=0, select bank1
  2650  0549  1814               	btfsc	20,0	;volatile
  2651  054A  2D4C               	goto	u140_21
  2652  054B  2D4D               	goto	u140_20
  2653  054C                     u140_21:
  2654  054C  2D53               	goto	i1l82
  2655  054D                     u140_20:
  2656  054D                     i1l1325:
  2657                           
  2658                           ;main.c: 40:             read_value = SSPBUF;
  2659  054D  1283               	bcf	3,5	;RP0=0, select bank0
  2660  054E  1303               	bcf	3,6	;RP1=0, select bank0
  2661  054F  0813               	movf	19,w	;volatile
  2662  0550  00A0               	movwf	??_myISR
  2663  0551  0820               	movf	??_myISR,w
  2664  0552  00D8               	movwf	_read_value
  2665  0553                     i1l82:	
  2666                           ;main.c: 41:         }
  2667                           
  2668                           
  2669                           ;main.c: 42:         SSPBUF = temperature;
  2670  0553  1283               	bcf	3,5	;RP0=0, select bank0
  2671  0554  0859               	movf	_temperature,w
  2672  0555  0093               	movwf	19	;volatile
  2673  0556                     i1l1327:
  2674                           
  2675                           ;main.c: 43:         PIR1bits.SSPIF = 0;
  2676  0556  118C               	bcf	12,3	;volatile
  2677  0557                     i1l83:
  2678  0557  0825               	movf	??_myISR+5,w
  2679  0558  008A               	movwf	10
  2680  0559  0E24               	swapf	??_myISR+4,w
  2681  055A  0083               	movwf	3
  2682  055B  0EFE               	swapf	btemp,f
  2683  055C  0E7E               	swapf	btemp,w
  2684  055D  0009               	retfie
  2685  055E                     __end_of_myISR:
  2686                           
  2687                           	psect	intentry
  2688  0004                     __pintentry:	
  2689                           ;incstack = 0
  2690                           ; Regs used in _myISR: [wreg+status,2+status,0+pclath+cstack]
  2691                           
  2692  0004                     interrupt_function:
  2693  007E                     saved_w	set	btemp
  2694  0004  00FE               	movwf	btemp
  2695  0005  0E03               	swapf	3,w
  2696  0006  1283               	bcf	3,5	;RP0=0, select bank0
  2697  0007  1303               	bcf	3,6	;RP1=0, select bank0
  2698  0008  00A4               	movwf	??_myISR+4
  2699  0009  080A               	movf	10,w
  2700  000A  00A5               	movwf	??_myISR+5
  2701  000B  120A  118A  2D13   	ljmp	_myISR
  2702                           
  2703                           	psect	text9
  2704  037D                     __ptext9:	
  2705 ;; *************** function ___xxtofl *****************
  2706 ;; Defined at:
  2707 ;;		line 10 in file "C:\Program Files\Microchip\xc8\v2.31\pic\sources\c90\common\xxtofl.c"
  2708 ;; Parameters:    Size  Location     Type
  2709 ;;  sign            1    wreg     unsigned char 
  2710 ;;  val             4    0[COMMON] long 
  2711 ;; Auto vars:     Size  Location     Type
  2712 ;;  sign            1    8[COMMON] unsigned char 
  2713 ;;  arg             4   10[COMMON] unsigned long 
  2714 ;;  exp             1    9[COMMON] unsigned char 
  2715 ;; Return value:  Size  Location     Type
  2716 ;;                  4    0[COMMON] unsigned char 
  2717 ;; Registers used:
  2718 ;;		wreg, status,2, status,0
  2719 ;; Tracked objects:
  2720 ;;		On entry : 0/0
  2721 ;;		On exit  : 0/0
  2722 ;;		Unchanged: 0/0
  2723 ;; Data sizes:     COMMON   BANK0   BANK1   BANK3   BANK2
  2724 ;;      Params:         4       0       0       0       0
  2725 ;;      Locals:         6       0       0       0       0
  2726 ;;      Temps:          4       0       0       0       0
  2727 ;;      Totals:        14       0       0       0       0
  2728 ;;Total ram usage:       14 bytes
  2729 ;; Hardware stack levels used:    1
  2730 ;; This function calls:
  2731 ;;		Nothing
  2732 ;; This function is called by:
  2733 ;;		_myISR
  2734 ;; This function uses a non-reentrant model
  2735 ;;
  2736                           
  2737                           
  2738                           ;psect for function ___xxtofl
  2739  037D                     ___xxtofl:
  2740                           
  2741                           ;incstack = 0
  2742                           ; Regs used in ___xxtofl: [wreg+status,2+status,0]
  2743                           ;___xxtofl@sign stored from wreg
  2744  037D  00F8               	movwf	___xxtofl@sign
  2745  037E                     i1l1265:
  2746  037E  0878               	movf	___xxtofl@sign,w
  2747  037F  1903               	btfsc	3,2
  2748  0380  2B82               	goto	u123_21
  2749  0381  2B83               	goto	u123_20
  2750  0382                     u123_21:
  2751  0382  2B97               	goto	i1l1271
  2752  0383                     u123_20:
  2753  0383                     i1l1267:
  2754  0383  1FF3               	btfss	___xxtofl@val+3,7
  2755  0384  2B86               	goto	u124_21
  2756  0385  2B87               	goto	u124_20
  2757  0386                     u124_21:
  2758  0386  2B97               	goto	i1l1271
  2759  0387                     u124_20:
  2760  0387                     i1l1269:
  2761  0387  0970               	comf	___xxtofl@val,w
  2762  0388  00FA               	movwf	___xxtofl@arg
  2763  0389  0971               	comf	___xxtofl@val+1,w
  2764  038A  00FB               	movwf	___xxtofl@arg+1
  2765  038B  0972               	comf	___xxtofl@val+2,w
  2766  038C  00FC               	movwf	___xxtofl@arg+2
  2767  038D  0973               	comf	___xxtofl@val+3,w
  2768  038E  00FD               	movwf	___xxtofl@arg+3
  2769  038F  0AFA               	incf	___xxtofl@arg,f
  2770  0390  1903               	skipnz
  2771  0391  0AFB               	incf	___xxtofl@arg+1,f
  2772  0392  1903               	skipnz
  2773  0393  0AFC               	incf	___xxtofl@arg+2,f
  2774  0394  1903               	skipnz
  2775  0395  0AFD               	incf	___xxtofl@arg+3,f
  2776  0396  2B9F               	goto	i1l632
  2777  0397                     i1l1271:
  2778  0397  0873               	movf	___xxtofl@val+3,w
  2779  0398  00FD               	movwf	___xxtofl@arg+3
  2780  0399  0872               	movf	___xxtofl@val+2,w
  2781  039A  00FC               	movwf	___xxtofl@arg+2
  2782  039B  0871               	movf	___xxtofl@val+1,w
  2783  039C  00FB               	movwf	___xxtofl@arg+1
  2784  039D  0870               	movf	___xxtofl@val,w
  2785  039E  00FA               	movwf	___xxtofl@arg
  2786  039F                     i1l632:
  2787  039F  0873               	movf	___xxtofl@val+3,w
  2788  03A0  0472               	iorwf	___xxtofl@val+2,w
  2789  03A1  0471               	iorwf	___xxtofl@val+1,w
  2790  03A2  0470               	iorwf	___xxtofl@val,w
  2791  03A3  1D03               	skipz
  2792  03A4  2BA6               	goto	u125_21
  2793  03A5  2BA7               	goto	u125_20
  2794  03A6                     u125_21:
  2795  03A6  2BB0               	goto	i1l1277
  2796  03A7                     u125_20:
  2797  03A7                     i1l1273:
  2798  03A7  3000               	movlw	0
  2799  03A8  00F3               	movwf	?___xxtofl+3
  2800  03A9  3000               	movlw	0
  2801  03AA  00F2               	movwf	?___xxtofl+2
  2802  03AB  3000               	movlw	0
  2803  03AC  00F1               	movwf	?___xxtofl+1
  2804  03AD  3000               	movlw	0
  2805  03AE  00F0               	movwf	?___xxtofl
  2806  03AF  2C36               	goto	i1l634
  2807  03B0                     i1l1277:
  2808  03B0  3096               	movlw	150
  2809  03B1  00F4               	movwf	??___xxtofl
  2810  03B2  0874               	movf	??___xxtofl,w
  2811  03B3  00F9               	movwf	___xxtofl@exp
  2812  03B4  2BC2               	goto	i1l1281
  2813  03B5                     i1l1279:
  2814  03B5  3001               	movlw	1
  2815  03B6  00F4               	movwf	??___xxtofl
  2816  03B7  0874               	movf	??___xxtofl,w
  2817  03B8  07F9               	addwf	___xxtofl@exp,f
  2818  03B9  3001               	movlw	1
  2819  03BA                     u126_25:
  2820  03BA  1003               	clrc
  2821  03BB  0CFD               	rrf	___xxtofl@arg+3,f
  2822  03BC  0CFC               	rrf	___xxtofl@arg+2,f
  2823  03BD  0CFB               	rrf	___xxtofl@arg+1,f
  2824  03BE  0CFA               	rrf	___xxtofl@arg,f
  2825  03BF  3EFF               	addlw	-1
  2826  03C0  1D03               	skipz
  2827  03C1  2BBA               	goto	u126_25
  2828  03C2                     i1l1281:
  2829  03C2  30FE               	movlw	254
  2830  03C3  057D               	andwf	___xxtofl@arg+3,w
  2831  03C4  1D03               	btfss	3,2
  2832  03C5  2BC7               	goto	u127_21
  2833  03C6  2BC8               	goto	u127_20
  2834  03C7                     u127_21:
  2835  03C7  2BB5               	goto	i1l1279
  2836  03C8                     u127_20:
  2837  03C8  2BE4               	goto	i1l638
  2838  03C9                     i1l1283:
  2839  03C9  3001               	movlw	1
  2840  03CA  00F4               	movwf	??___xxtofl
  2841  03CB  0874               	movf	??___xxtofl,w
  2842  03CC  07F9               	addwf	___xxtofl@exp,f
  2843  03CD                     i1l1285:
  2844  03CD  3001               	movlw	1
  2845  03CE  07FA               	addwf	___xxtofl@arg,f
  2846  03CF  3000               	movlw	0
  2847  03D0  1803               	skipnc
  2848  03D1  3001               	movlw	1
  2849  03D2  07FB               	addwf	___xxtofl@arg+1,f
  2850  03D3  3000               	movlw	0
  2851  03D4  1803               	skipnc
  2852  03D5  3001               	movlw	1
  2853  03D6  07FC               	addwf	___xxtofl@arg+2,f
  2854  03D7  3000               	movlw	0
  2855  03D8  1803               	skipnc
  2856  03D9  3001               	movlw	1
  2857  03DA  07FD               	addwf	___xxtofl@arg+3,f
  2858  03DB                     i1l1287:
  2859  03DB  3001               	movlw	1
  2860  03DC                     u128_25:
  2861  03DC  1003               	clrc
  2862  03DD  0CFD               	rrf	___xxtofl@arg+3,f
  2863  03DE  0CFC               	rrf	___xxtofl@arg+2,f
  2864  03DF  0CFB               	rrf	___xxtofl@arg+1,f
  2865  03E0  0CFA               	rrf	___xxtofl@arg,f
  2866  03E1  3EFF               	addlw	-1
  2867  03E2  1D03               	skipz
  2868  03E3  2BDC               	goto	u128_25
  2869  03E4                     i1l638:
  2870  03E4  30FF               	movlw	255
  2871  03E5  057D               	andwf	___xxtofl@arg+3,w
  2872  03E6  1D03               	btfss	3,2
  2873  03E7  2BE9               	goto	u129_21
  2874  03E8  2BEA               	goto	u129_20
  2875  03E9                     u129_21:
  2876  03E9  2BC9               	goto	i1l1283
  2877  03EA                     u129_20:
  2878  03EA  2BF6               	goto	i1l1291
  2879  03EB                     i1l1289:
  2880  03EB  3001               	movlw	1
  2881  03EC  02F9               	subwf	___xxtofl@exp,f
  2882  03ED  3001               	movlw	1
  2883  03EE  00F4               	movwf	??___xxtofl
  2884  03EF                     u130_25:
  2885  03EF  1003               	clrc
  2886  03F0  0DFA               	rlf	___xxtofl@arg,f
  2887  03F1  0DFB               	rlf	___xxtofl@arg+1,f
  2888  03F2  0DFC               	rlf	___xxtofl@arg+2,f
  2889  03F3  0DFD               	rlf	___xxtofl@arg+3,f
  2890  03F4  0BF4               	decfsz	??___xxtofl,f
  2891  03F5  2BEF               	goto	u130_25
  2892  03F6                     i1l1291:
  2893  03F6  1BFC               	btfsc	___xxtofl@arg+2,7
  2894  03F7  2BF9               	goto	u131_21
  2895  03F8  2BFA               	goto	u131_20
  2896  03F9                     u131_21:
  2897  03F9  2C00               	goto	i1l645
  2898  03FA                     u131_20:
  2899  03FA                     i1l1293:
  2900  03FA  3002               	movlw	2
  2901  03FB  0279               	subwf	___xxtofl@exp,w
  2902  03FC  1803               	skipnc
  2903  03FD  2BFF               	goto	u132_21
  2904  03FE  2C00               	goto	u132_20
  2905  03FF                     u132_21:
  2906  03FF  2BEB               	goto	i1l1289
  2907  0400                     u132_20:
  2908  0400                     i1l645:
  2909  0400  1879               	btfsc	___xxtofl@exp,0
  2910  0401  2C03               	goto	u133_21
  2911  0402  2C04               	goto	u133_20
  2912  0403                     u133_21:
  2913  0403  2C0C               	goto	i1l646
  2914  0404                     u133_20:
  2915  0404                     i1l1295:
  2916  0404  30FF               	movlw	255
  2917  0405  05FA               	andwf	___xxtofl@arg,f
  2918  0406  30FF               	movlw	255
  2919  0407  05FB               	andwf	___xxtofl@arg+1,f
  2920  0408  307F               	movlw	127
  2921  0409  05FC               	andwf	___xxtofl@arg+2,f
  2922  040A  30FF               	movlw	255
  2923  040B  05FD               	andwf	___xxtofl@arg+3,f
  2924  040C                     i1l646:
  2925  040C  1003               	clrc
  2926  040D  0CF9               	rrf	___xxtofl@exp,f
  2927  040E                     i1l1297:
  2928  040E  0879               	movf	___xxtofl@exp,w
  2929  040F  00F4               	movwf	??___xxtofl
  2930  0410  01F5               	clrf	??___xxtofl+1
  2931  0411  01F6               	clrf	??___xxtofl+2
  2932  0412  01F7               	clrf	??___xxtofl+3
  2933  0413  3018               	movlw	24
  2934  0414                     u134_25:
  2935  0414  1003               	clrc
  2936  0415  0DF4               	rlf	??___xxtofl,f
  2937  0416  0DF5               	rlf	??___xxtofl+1,f
  2938  0417  0DF6               	rlf	??___xxtofl+2,f
  2939  0418  0DF7               	rlf	??___xxtofl+3,f
  2940  0419                     u134_20:
  2941  0419  3EFF               	addlw	-1
  2942  041A  1D03               	skipz
  2943  041B  2C14               	goto	u134_25
  2944  041C  0874               	movf	??___xxtofl,w
  2945  041D  04FA               	iorwf	___xxtofl@arg,f
  2946  041E  0875               	movf	??___xxtofl+1,w
  2947  041F  04FB               	iorwf	___xxtofl@arg+1,f
  2948  0420  0876               	movf	??___xxtofl+2,w
  2949  0421  04FC               	iorwf	___xxtofl@arg+2,f
  2950  0422  0877               	movf	??___xxtofl+3,w
  2951  0423  04FD               	iorwf	___xxtofl@arg+3,f
  2952  0424                     i1l1299:
  2953  0424  0878               	movf	___xxtofl@sign,w
  2954  0425  1903               	btfsc	3,2
  2955  0426  2C28               	goto	u135_21
  2956  0427  2C29               	goto	u135_20
  2957  0428                     u135_21:
  2958  0428  2C2E               	goto	i1l1305
  2959  0429                     u135_20:
  2960  0429                     i1l1301:
  2961  0429  1FF3               	btfss	___xxtofl@val+3,7
  2962  042A  2C2C               	goto	u136_21
  2963  042B  2C2D               	goto	u136_20
  2964  042C                     u136_21:
  2965  042C  2C2E               	goto	i1l1305
  2966  042D                     u136_20:
  2967  042D                     i1l1303:
  2968  042D  17FD               	bsf	___xxtofl@arg+3,7
  2969  042E                     i1l1305:
  2970  042E  087D               	movf	___xxtofl@arg+3,w
  2971  042F  00F3               	movwf	?___xxtofl+3
  2972  0430  087C               	movf	___xxtofl@arg+2,w
  2973  0431  00F2               	movwf	?___xxtofl+2
  2974  0432  087B               	movf	___xxtofl@arg+1,w
  2975  0433  00F1               	movwf	?___xxtofl+1
  2976  0434  087A               	movf	___xxtofl@arg,w
  2977  0435  00F0               	movwf	?___xxtofl
  2978  0436                     i1l634:
  2979  0436  0008               	return
  2980  0437                     __end_of___xxtofl:
  2981  007E                     btemp	set	126	;btemp
  2982  007E                     wtemp0	set	126
  2983                           
  2984                           	psect	config
  2985                           
  2986                           ;Config register CONFIG1 @ 0x2007
  2987                           ;	Oscillator Selection bits
  2988                           ;	FOSC = XT, XT oscillator: Crystal/resonator on RA6/OSC2/CLKOUT and RA7/OSC1/CLKIN
  2989                           ;	Watchdog Timer Enable bit
  2990                           ;	WDTE = OFF, WDT disabled and can be enabled by SWDTEN bit of the WDTCON register
  2991                           ;	Power-up Timer Enable bit
  2992                           ;	PWRTE = OFF, PWRT disabled
  2993                           ;	RE3/MCLR pin function select bit
  2994                           ;	MCLRE = ON, RE3/MCLR pin function is MCLR
  2995                           ;	Code Protection bit
  2996                           ;	CP = OFF, Program memory code protection is disabled
  2997                           ;	Data Code Protection bit
  2998                           ;	CPD = OFF, Data memory code protection is disabled
  2999                           ;	Brown Out Reset Selection bits
  3000                           ;	BOREN = OFF, BOR disabled
  3001                           ;	Internal External Switchover bit
  3002                           ;	IESO = OFF, Internal/External Switchover mode is disabled
  3003                           ;	Fail-Safe Clock Monitor Enabled bit
  3004                           ;	FCMEN = OFF, Fail-Safe Clock Monitor is disabled
  3005                           ;	Low Voltage Programming Enable bit
  3006                           ;	LVP = OFF, RB3 pin has digital I/O, HV on MCLR must be used for programming
  3007                           ;	In-Circuit Debugger Mode bit
  3008                           ;	DEBUG = 0x1, unprogrammed default
  3009  2007                     	org	8199
  3010  2007  20F1               	dw	8433
  3011                           
  3012                           ;Config register CONFIG2 @ 0x2008
  3013                           ;	Brown-out Reset Selection bit
  3014                           ;	BOR4V = BOR40V, Brown-out Reset set to 4.0V
  3015                           ;	Flash Program Memory Self Write Enable bits
  3016                           ;	WRT = OFF, Write protection off
  3017  2008                     	org	8200
  3018  2008  3FFF               	dw	16383

Data Sizes:
    Strings     0
    Constant    0
    Data        0
    BSS         5
    Persistent  2
    Stack       0

Auto Spaces:
    Space          Size  Autos    Used
    COMMON           14     14      14
    BANK0            80     52      59
    BANK1            80      0       0
    BANK3            96      0       0
    BANK2            96      0       0

Pointer List with Targets:

    None.

Critical Paths under _main in COMMON

    None.

Critical Paths under _myISR in COMMON

    _myISR->___xxtofl

Critical Paths under _main in BANK0

    _main->___fltol
    ___fltol->___flmul
    ___flmul->__Umul8_16

Critical Paths under _myISR in BANK0

    None.

Critical Paths under _main in BANK1

    None.

Critical Paths under _myISR in BANK1

    None.

Critical Paths under _main in BANK3

    None.

Critical Paths under _myISR in BANK3

    None.

Critical Paths under _main in BANK2

    None.

Critical Paths under _myISR in BANK2

    None.

Call Graph Tables:

 ---------------------------------------------------------------------------------
 (Depth) Function   	        Calls       Base Space   Used Autos Params    Refs
 ---------------------------------------------------------------------------------
 (0) _main                                                 0     0      0    2722
                  _SYSTEM_Initialize
                            ___flmul
                            ___fltol
 ---------------------------------------------------------------------------------
 (1) ___fltol                                             11     7      4     305
                                             41 BANK0     11     7      4
                            ___flmul (ARG)
 ---------------------------------------------------------------------------------
 (1) ___flmul                                             26    18      8    2417
                                             15 BANK0     26    18      8
                          __Umul8_16
 ---------------------------------------------------------------------------------
 (2) __Umul8_16                                            9     7      2     799
                                              6 BANK0      9     7      2
 ---------------------------------------------------------------------------------
 (1) _SYSTEM_Initialize                                    0     0      0       0
                     _ADC_Initialize
           _PORTS_MANAGER_Initialize
             _SPI_MANAGER_Initialize
 ---------------------------------------------------------------------------------
 (2) _SPI_MANAGER_Initialize                               0     0      0       0
 ---------------------------------------------------------------------------------
 (2) _PORTS_MANAGER_Initialize                             0     0      0       0
 ---------------------------------------------------------------------------------
 (2) _ADC_Initialize                                       0     0      0       0
 ---------------------------------------------------------------------------------
 Estimated maximum stack depth 2
 ---------------------------------------------------------------------------------
 (Depth) Function   	        Calls       Base Space   Used Autos Params    Refs
 ---------------------------------------------------------------------------------
 (3) _myISR                                                6     6      0     398
                                              0 BANK0      6     6      0
                           ___xxtofl
 ---------------------------------------------------------------------------------
 (4) ___xxtofl                                            14    10      4     398
                                              0 COMMON    14    10      4
 ---------------------------------------------------------------------------------
 Estimated maximum stack depth 4
 ---------------------------------------------------------------------------------

 Call Graph Graphs:

 _main (ROOT)
   _SYSTEM_Initialize
     _ADC_Initialize
     _PORTS_MANAGER_Initialize
     _SPI_MANAGER_Initialize
   ___flmul
     __Umul8_16
   ___fltol
     ___flmul (ARG)
       __Umul8_16

 _myISR (ROOT)
   ___xxtofl

 Address spaces:
Name               Size   Autos  Total    Cost      Usage
BITCOMMON            E      0       0       0        0.0%
EEDATA             100      0       0       0        0.0%
NULL                 0      0       0       0        0.0%
CODE                 0      0       0       0        0.0%
COMMON               E      E       E       1      100.0%
BITSFR0              0      0       0       1        0.0%
SFR0                 0      0       0       1        0.0%
BITSFR1              0      0       0       2        0.0%
SFR1                 0      0       0       2        0.0%
STACK                0      0       0       2        0.0%
ABS                  0      0      49       3        0.0%
BITBANK0            50      0       0       4        0.0%
BITSFR3              0      0       0       4        0.0%
SFR3                 0      0       0       4        0.0%
BANK0               50     34      3B       5       73.8%
BITSFR2              0      0       0       5        0.0%
SFR2                 0      0       0       5        0.0%
BITBANK1            50      0       0       6        0.0%
BANK1               50      0       0       7        0.0%
BITBANK3            60      0       0       8        0.0%
BANK3               60      0       0       9        0.0%
BITBANK2            60      0       0      10        0.0%
BANK2               60      0       0      11        0.0%
DATA                 0      0      49      12        0.0%


Microchip Technology PIC Macro Assembler V2.31 build 20201012212115 
Symbol Table                                                                                   Tue Feb 23 11:29:43 2021

                      _SSPSTATbits 0094                                 l40 05BA  
                               l25 05A7                                 l49 05DC  
                               l91 04F0                                 l92 0504  
              __Umul8_16@word_mpld 002C                                l113 05CC  
                              l600 0370                                l607 0574  
                              l392 049D                                l609 0586  
                              l385 04B2                                l395 04B2  
                              l594 02E8                                l588 037C  
                              u730 056E                                u810 048A  
                              u731 056D                                u811 0489  
                              u900 005F                                u820 0491  
                              u901 005E                                u821 0490  
                              u805 047A                                u750 0582  
                              u910 0064                                u751 0581  
                              u911 0063                                u920 007B  
                              u840 04A2                                u760 0444  
                              u745 0575                                u921 007A  
                              u841 04A1                                u761 0443  
                              u930 0080                                u850 04A7  
                              u770 045B                                u931 007F  
                              u851 04A6                                u835 0494  
                              u860 002D                                u780 0471  
                              u941 00D1                                u861 002C  
                              u781 0470                                u942 00D8  
                              u870 0033                                u790 0478  
                              u951 00ED                                u943 00DF  
                              u871 0032                                u791 0477  
                              u775 0456                                u952 00F4  
                              u880 0038                                u961 0119  
                              u953 00FB                                u881 0037  
                              u962 0120                                u890 0059  
                              u971 0135                                u963 0127  
                              u891 0058                                u972 013C  
                              u973 0143                                u991 016B  
                              u992 0172                                u993 0179  
                              u985 0145                       ___flmul@aexp 0041  
                     ___flmul@bexp 0042                       ___flmul@sign 003C  
                     ___flmul@temp 0047                       ___flmul@prod 0043  
                     ___fltol@exp1 0053                               l1101 046B  
                             l1031 0591                               l1111 0479  
                             l1103 046D                               l1041 059E  
                             l1033 0594                               l1025 0587  
                             l1201 0219                               l1121 04A2  
                             l1105 0471                               l1113 048B  
                             l1043 05A1                               l1035 0597  
                             l1027 058B                               l1051 05B1  
                             l1211 02AB                               l1203 0246  
                             l1131 002D                               l1123 04A7  
                             l1061 05C2                               l1045 05A4  
                             l1037 059A                               l1029 058E  
                             l1053 05B4                               l1213 02B4  
                             l1221 02C8                               l1205 026C  
                             l1141 0042                               l1133 002E  
                             l1125 001C                               l1071 05CB  
                             l1063 05C3                               l1039 059D  
                             l1055 05B7                               l1047 05A8  
                             l1223 02CC                               l1215 02B8  
                             l1207 0294                               l1151 005A  
                             l1143 004A                               l1135 0033  
                             l1127 0023                               l1119 0492  
                             l1065 05C6                               l1057 05BB  
                             l1049 05AD                               l1081 057D  
                             l1073 0561                               l1241 031D  
                             l1233 02ED                               l1225 02CD  
                             l1217 02B9                               l1209 029D  
                             l1161 0076                               l1153 005F  
                             l1145 004F                               l1137 0038  
                             l1129 0029                               l1067 05C7  
                             l1059 05BF                               l1083 0582  
                             l1075 0563                               l1251 0354  
                             l1235 02F2                               l1243 0323  
                             l1227 02D1                               l1219 02C2  
                             l1171 0099                               l1163 007B  
                             l1155 0064                               l1147 0055  
                             l1139 0040                               l1091 0444  
                             l1331 04B8                               l1069 05CA  
                             l1077 056A                               l1261 0374  
                             l1253 0356                               l1245 0330  
                             l1237 0300                               l1229 02E5  
                             l1181 0127                               l1173 00A6  
                             l1165 0080                               l1157 006C  
                             l1149 0059                               l1341 0502  
                             l1333 04BB                               l1087 05CD  
                             l1079 056E                               l1255 0364  
                             l1247 033B                               l1239 0304  
                             l1191 0189                               l1183 0143  
                             l1175 00C3                               l1159 006E  
                             l1095 044D                               l1343 050D  
                             l1335 04E5                               l1257 0368  
                             l1249 034A                               l1193 01A6  
                             l1185 014C                               l1177 00DF  
                             l1169 0089                               l1097 0462  
                             l1089 0437                               l1337 04EE  
                             l1329 04B3                               l1259 0369  
                             l1195 01BF                               l1187 015C  
                             l1179 010B                               l1099 0463  
                             l1339 04F9                               l1197 01DC  
                             l1189 0179                               l1199 0209  
                             u1001 0198                               u1002 019F  
                             u1003 01A6                               u1021 01CE  
                             u1110 02B8                               u1022 01D5  
                             u1111 02B7                               u1031 01FB  
                             u1023 01DC                               u1015 01A8  
                             u1200 0330                               u1032 0202  
                             u1201 032F                               u1105 02AD  
                             u1041 0228                               u1033 0209  
                             u1210 034A                               u1130 02CC  
                             u1050 0252                               u1042 022F  
                             u1211 0349                               u1131 02CB  
                             u1043 0236                               u1220 0368  
                             u1140 02D1                               u1221 0367  
                             u1205 032C                               u1141 02D0  
                             u1125 02BB                               u1061 025E  
                             u1150 02E5                               u1070 027A  
                             u1062 0265                               u1215 0346  
                             u1151 02E4                               u1063 026C  
                             u1055 024D                               u1160 02EC  
                             u1161 02EB                               u1081 0286  
                             u1170 02F2                               u1082 028D  
                             u1410 04EE                               u1171 02F1  
                             u1083 0294                               u1075 0275  
                             u1411 04ED                               u1180 0304  
                             u1420 04F9                               _IOCB 0096  
                             u1181 0303                               u1421 04F8  
                             u1190 0313                               u1430 0502  
                             u1095 0296                               u1431 0501  
                             u1440 050D                               u1441 050C  
                             u1195 030E                               i1l82 0553  
                             i1l83 0557                               _main 04B3  
                             btemp 007E                               start 000E  
                    ___fltol@sign1 0052                              ?_main 0070  
                  __end_of___flmul 037D                    __end_of___fltol 04B3  
                            _ANSEL 0188                              i1l632 039F  
                            i1l634 0436                              i1l645 0400  
                            i1l646 040C                              i1l638 03E4  
                            _PORTA 0005                              _PORTB 0006  
                            _PORTD 0008                              _PORTE 0009  
                            _TRISB 0086                              _TRISD 0088  
                            _TRISE 0089                              _myISR 0513  
                            pclath 000A                              status 0003  
                            wtemp0 007E                    __initialization 0011  
                     __end_of_main 0513                             ??_main 0054  
                           _ADCON0 001F                             _ADCON1 009F  
                           ?_myISR 0070                             _ADRESH 001E  
                           _ADRESL 009E                             _ANSELH 0189  
                _temperature_float 0054                             i1l1301 0429  
                           i1l1303 042D                             i1l1311 0517  
                           i1l1305 042E                             i1l1313 051B  
                           i1l1321 0543                             i1l1323 0547  
                           i1l1315 0538                             i1l1325 054D  
                           i1l1317 053F                             i1l1309 0513  
                           i1l1271 0397                             i1l1327 0556  
                           i1l1319 0542                             i1l1281 03C2  
                           i1l1273 03A7                             i1l1265 037E  
                           i1l1291 03F6                             i1l1283 03C9  
                           i1l1267 0383                             i1l1293 03FA  
                           i1l1285 03CD                             i1l1277 03B0  
                           i1l1269 0387                             i1l1295 0404  
                           i1l1287 03DB                             i1l1279 03B5  
                           i1l1297 040E                             i1l1289 03EB  
                           i1l1299 0424                             u130_25 03EF  
                           u131_20 03FA                             u123_20 0383  
                           u131_21 03F9                             u123_21 0382  
                           u132_20 0400                             u124_20 0387  
                           u140_20 054D                             u132_21 03FF  
                           u124_21 0386                             u140_21 054C  
                           u133_20 0404                             u125_20 03A7  
                           u133_21 0403                             u125_21 03A6  
                           u134_20 0419                             u134_25 0414  
                           u126_25 03BA                             u135_20 0429  
                           u127_20 03C8                             u135_21 0428  
                           u127_21 03C7                             u136_20 042D  
                           u136_21 042C                             u128_25 03DC  
                           u129_20 03EA                             u137_20 0517  
                           u129_21 03E9                             u137_21 0516  
                           u145_27 053C                             u138_20 051B  
                           u138_21 051A                             u139_20 0547  
                           u139_21 0546                             _SSPCON 0014  
                           _SSPBUF 0013                   __end_of___xxtofl 0437  
                        ??___flmul 0037                          ??___fltol 004D  
               __size_of__Umul8_16 0029                             saved_w 007E  
                     ___xxtofl@arg 007A                       ___xxtofl@exp 0079  
                _SYSTEM_Initialize 05CD                       ___xxtofl@val 0070  
          __end_of__initialization 0018                 ?_SYSTEM_Initialize 0070  
                       ___fltol@f1 0049                     __pcstackCOMMON 0070  
              ??_SYSTEM_Initialize 0026                      __end_of_myISR 055E  
                          ??_myISR 0020          __end_of_SYSTEM_Initialize 05DD  
                       __pbssBANK0 0054                  __end_of__Umul8_16 0587  
                       __pmaintext 04B3                         __pintentry 0004  
__size_of_PORTS_MANAGER_Initialize 0021          ?_PORTS_MANAGER_Initialize 0070  
          __size_of_ADC_Initialize 0012                          ?___xxtofl 0070  
                          _SSPSTAT 0094                            ___flmul 001C  
                          ___fltol 0437                            __ptext1 0437  
                          __ptext2 001C                            __ptext3 055E  
                          __ptext4 05CD                            __ptext5 05A8  
                          __ptext6 0587                            __ptext7 05BB  
                          __ptext8 0513                            __ptext9 037D  
                       _read_value 0058                         ??___xxtofl 0074  
         ??_SPI_MANAGER_Initialize 0026         __size_of_SYSTEM_Initialize 0010  
             end_of_initialization 0018                      ___xxtofl@sign 0078  
                        _TRISAbits 0085                          _TRISCbits 0087  
                      ___flmul@grs 003D                     _ADC_Initialize 05BB  
              start_initialization 0011    __size_of_SPI_MANAGER_Initialize 0013  
 __end_of_PORTS_MANAGER_Initialize 05A8             __end_of_ADC_Initialize 05CD  
                        __Umul8_16 055E                          ___flmul@a 0033  
                        ___flmul@b 002F                          ___latbits 0002  
                    __pcstackBANK0 0020                  __size_of___xxtofl 00BA  
                        __pnvBANK0 0059             _SPI_MANAGER_Initialize 05A8  
                         ?___flmul 002F                           ?___fltol 0049  
                       ?__Umul8_16 0026                    ?_ADC_Initialize 0070  
                   __size_of_myISR 004B                  interrupt_function 0004  
                         _PIE1bits 008C                           _PIR1bits 000C  
         _PORTS_MANAGER_Initialize 0587                         _ADCON0bits 001F  
                      ??__Umul8_16 0028                   __size_of___flmul 0361  
                 __size_of___fltol 007C                           ___xxtofl 037D  
                    __size_of_main 0060                         _INTCONbits 000B  
                         intlevel1 0000            ?_SPI_MANAGER_Initialize 0070  
                 ??_ADC_Initialize 0026             __Umul8_16@multiplicand 0026  
                      _temperature 0059         ??_PORTS_MANAGER_Initialize 0026  
   __end_of_SPI_MANAGER_Initialize 05BB               __Umul8_16@multiplier 002E  
                __Umul8_16@product 002A  
